# File txed40.asm
0000			; z80dasm 1.1.6 
0000			; command line: z80dasm -l -a -t -g 0x8000 -o txed40.asm txed40.com 
0000			 
0000				org	08000h 
8000			 
8000			l8000h: 
8000 c3 e9 06			jp 006e9h		;8000	c3 e9 06 	. . .  
8003 c3 40 07			jp 00740h		;8003	c3 40 07 	. @ .  
8006 9f				sbc a,a			;8006	9f 	.  
8007 1d				dec e			;8007	1d 	.  
8008 97				sub a			;8008	97 	.  
8009 28 76			jr z,l8081h		;8009	28 76 	( v  
800b 01 40 02			ld bc,00240h		;800b	01 40 02 	. @ .  
800e 0a				ld a,(bc)			;800e	0a 	.  
800f 95				sub l			;800f	95 	.  
8010 bf				cp a			;8010	bf 	.  
8011 1b				dec de			;8011	1b 	.  
8012 00				nop			;8012	00 	.  
8013 20 07			jr nz,l801ch		;8013	20 07 	  .  
8015 00				nop			;8015	00 	.  
8016 00				nop			;8016	00 	.  
8017 28 18			jr z,$+26		;8017	28 18 	( .  
8019 ff				rst 38h			;8019	ff 	.  
801a 00				nop			;801a	00 	.  
801b c8				ret z			;801b	c8 	.  
801c			l801ch: 
801c 00				nop			;801c	00 	.  
801d 80				add a,b			;801d	80 	.  
801e 00				nop			;801e	00 	.  
801f 2e ee			ld l,0eeh		;801f	2e ee 	. .  
8021 0a				ld a,(bc)			;8021	0a 	.  
8022 f1				pop af			;8022	f1 	.  
8023 00				nop			;8023	00 	.  
8024 08				ex af,af'			;8024	08 	.  
8025 95				sub l			;8025	95 	.  
8026 39				add hl,sp			;8026	39 	9  
8027 42				ld b,d			;8027	42 	B  
8028 43				ld b,e			;8028	43 	C  
8029 48				ld c,b			;8029	48 	H  
802a 20 00			jr nz,l802ch		;802a	20 00 	  .  
802c			l802ch: 
802c 00				nop			;802c	00 	.  
802d 20 00			jr nz,l802fh		;802d	20 00 	  .  
802f			l802fh: 
802f 01 01 3d			ld bc,03d01h		;802f	01 01 3d 	. . =  
8032 00				nop			;8032	00 	.  
8033 00				nop			;8033	00 	.  
8034 06 01			ld b,001h		;8034	06 01 	. .  
8036 01 48 08			ld bc,00848h		;8036	01 48 08 	. H .  
8039 08				ex af,af'			;8039	08 	.  
803a 04				inc b			;803a	04 	.  
803b 0c				inc c			;803b	0c 	.  
803c 01 00 42			ld bc,04200h		;803c	01 00 42 	. . B  
803f 21 40 00			ld hl,00040h		;803f	21 40 00 	! @ .  
8042 00				nop			;8042	00 	.  
8043 00				nop			;8043	00 	.  
8044 23				inc hl			;8044	23 	#  
8045 26 00			ld h,000h		;8045	26 00 	& .  
8047 02				ld (bc),a			;8047	02 	.  
8048 00				nop			;8048	00 	.  
8049 00				nop			;8049	00 	.  
804a 00				nop			;804a	00 	.  
804b 00				nop			;804b	00 	.  
804c 00				nop			;804c	00 	.  
804d 43				ld b,e			;804d	43 	C  
804e 40				ld b,b			;804e	40 	@  
804f 04				inc b			;804f	04 	.  
8050 64				ld h,h			;8050	64 	d  
8051 64				ld h,h			;8051	64 	d  
8052 39				add hl,sp			;8052	39 	9  
8053 05				dec b			;8053	05 	.  
8054 00				nop			;8054	00 	.  
8055 0d				dec c			;8055	0d 	.  
8056 00				nop			;8056	00 	.  
8057 02				ld (bc),a			;8057	02 	.  
8058 78				ld a,b			;8058	78 	x  
8059 b1				or c			;8059	b1 	.  
805a ca 65 01			jp z,00165h		;805a	ca 65 01 	. e .  
805d 0b				dec bc			;805d	0b 	.  
805e 02				ld (bc),a			;805e	02 	.  
805f 24				inc h			;805f	24 	$  
8060 24				inc h			;8060	24 	$  
8061 24				inc h			;8061	24 	$  
8062 00				nop			;8062	00 	.  
8063 20 20			jr nz,$+34		;8063	20 20 	     
8065 20 02			jr nz,l8069h		;8065	20 02 	  .  
8067 42				ld b,d			;8067	42 	B  
8068 41				ld b,c			;8068	41 	A  
8069			l8069h: 
8069 4b				ld c,e			;8069	4b 	K  
806a 00				nop			;806a	00 	.  
806b 20 20			jr nz,l808dh		;806b	20 20 	     
806d 20 00			jr nz,l806fh		;806d	20 00 	  .  
806f			l806fh: 
806f 20 20			jr nz,$+34		;806f	20 20 	     
8071 20 00			jr nz,l8073h		;8071	20 00 	  .  
8073			l8073h: 
8073 20 20			jr nz,$+34		;8073	20 20 	     
8075 20 1e			jr nz,$+32		;8075	20 1e 	  .  
8077 db 01			in a,(001h)		;8077	db 01 	. .  
8079 19				add hl,de			;8079	19 	.  
807a d7				rst 10h			;807a	d7 	.  
807b 01 7f de			ld bc,0de7fh		;807b	01 7f de 	.  .  
807e 01 02 03			ld bc,00302h		;807e	01 02 03 	. . .  
8081			l8081h: 
8081 02				ld (bc),a			;8081	02 	.  
8082 04				inc b			;8082	04 	.  
8083 e5				push hl			;8083	e5 	.  
8084 01 05 df			ld bc,0df05h		;8084	01 05 df 	. . .  
8087 01 07 e7			ld bc,0e707h		;8087	01 07 e7 	. . .  
808a 01 0a e1			ld bc,0e10ah		;808a	01 0a e1 	. . .  
808d			l808dh: 
808d 01 0b ec			ld bc,0ec0bh		;808d	01 0b ec 	. . .  
8090 01 0e ea			ld bc,0ea0eh		;8090	01 0e ea 	. . .  
8093 01 0f 00			ld bc,0000fh		;8093	01 0f 00 	. . .  
8096 02				ld (bc),a			;8096	02 	.  
8097 10 ef			djnz $-15		;8097	10 ef 	. .  
8099 01 11 ee			ld bc,0ee11h		;8099	01 11 ee 	. . .  
809c 01 12 fd			ld bc,0fd12h		;809c	01 12 fd 	. . .  
809f 01 13 f6			ld bc,0f613h		;809f	01 13 f6 	. . .  
80a2 01 15 fa			ld bc,0fa15h		;80a2	01 15 fa 	. . .  
80a5 01 16 e4			ld bc,0e416h		;80a5	01 16 e4 	. . .  
80a8 01 17 f8			ld bc,0f817h		;80a8	01 17 f8 	. . .  
80ab 01 18 f3			ld bc,0f318h		;80ab	01 18 f3 	. . .  
80ae 01 1a 05			ld bc,0051ah		;80ae	01 1a 05 	. . .  
80b1 02				ld (bc),a			;80b1	02 	.  
80b2 00				nop			;80b2	00 	.  
80b3 d3 01			out (001h),a		;80b3	d3 01 	. .  
80b5 00				nop			;80b5	00 	.  
80b6 d3 01			out (001h),a		;80b6	d3 01 	. .  
80b8 00				nop			;80b8	00 	.  
80b9 d3 01			out (001h),a		;80b9	d3 01 	. .  
80bb 00				nop			;80bb	00 	.  
80bc d3 01			out (001h),a		;80bc	d3 01 	. .  
80be 00				nop			;80be	00 	.  
80bf d3 01			out (001h),a		;80bf	d3 01 	. .  
80c1 00				nop			;80c1	00 	.  
80c2 d3 01			out (001h),a		;80c2	d3 01 	. .  
80c4 00				nop			;80c4	00 	.  
80c5 d3 01			out (001h),a		;80c5	d3 01 	. .  
80c7 00				nop			;80c7	00 	.  
80c8 d3 01			out (001h),a		;80c8	d3 01 	. .  
80ca 00				nop			;80ca	00 	.  
80cb d3 01			out (001h),a		;80cb	d3 01 	. .  
80cd 00				nop			;80cd	00 	.  
80ce d3 01			out (001h),a		;80ce	d3 01 	. .  
80d0 00				nop			;80d0	00 	.  
80d1 d3 01			out (001h),a		;80d1	d3 01 	. .  
80d3 49				ld c,c			;80d3	49 	I  
80d4 7f				ld a,a			;80d4	7f 	  
80d5 1b				dec de			;80d5	1b 	.  
80d6 ff				rst 38h			;80d6	ff 	.  
80d7 46				ld b,(hl)			;80d7	46 	F  
80d8 00				nop			;80d8	00 	.  
80d9 1b				dec de			;80d9	1b 	.  
80da ff				rst 38h			;80da	ff 	.  
80db 5e				ld e,(hl)			;80db	5e 	^  
80dc 00				nop			;80dc	00 	.  
80dd ff				rst 38h			;80dd	ff 	.  
80de 2d				dec l			;80de	2d 	-  
80df 44				ld b,h			;80df	44 	D  
80e0 ff				rst 38h			;80e0	ff 	.  
80e1 49				ld c,c			;80e1	49 	I  
80e2 0d				dec c			;80e2	0d 	.  
80e3 1b				dec de			;80e3	1b 	.  
80e4 2d				dec l			;80e4	2d 	-  
80e5 43				ld b,e			;80e5	43 	C  
80e6 ff				rst 38h			;80e6	ff 	.  
80e7 2d				dec l			;80e7	2d 	-  
80e8 43				ld b,e			;80e8	43 	C  
80e9 30 4c			jr nc,$+78		;80e9	30 4c 	0 L  
80eb ff				rst 38h			;80eb	ff 	.  
80ec 4b				ld c,e			;80ec	4b 	K  
80ed ff				rst 38h			;80ed	ff 	.  
80ee 2d				dec l			;80ee	2d 	-  
80ef 31 35 4c			ld sp,04c35h		;80ef	31 35 4c 	1 5 L  
80f2 ff				rst 38h			;80f2	ff 	.  
80f3 45				ld b,l			;80f3	45 	E  
80f4 4d				ld c,l			;80f4	4d 	M  
80f5 ff				rst 38h			;80f5	ff 	.  
80f6 4f				ld c,a			;80f6	4f 	O  
80f7 ff				rst 38h			;80f7	ff 	.  
80f8 55				ld d,l			;80f8	55 	U  
80f9 55				ld d,l			;80f9	55 	U  
80fa 2d				dec l			;80fa	2d 	-  
80fb 55				ld d,l			;80fb	55 	U  
80fc ff				rst 38h			;80fc	ff 	.  
80fd 2d				dec l			;80fd	2d 	-  
80fe 59				ld e,c			;80fe	59 	Y  
80ff ff				rst 38h			;80ff	ff 	.  
8100 49				ld c,c			;8100	49 	I  
8101 1b				dec de			;8101	1b 	.  
8102 ff				rst 38h			;8102	ff 	.  
8103 42				ld b,d			;8103	42 	B  
8104 ff				rst 38h			;8104	ff 	.  
8105 5a				ld e,d			;8105	5a 	Z  
8106 ff				rst 38h			;8106	ff 	.  
8107 4f				ld c,a			;8107	4f 	O  
8108 03				inc bc			;8108	03 	.  
8109 c3 24 05			jp 00524h		;8109	c3 24 05 	. $ .  
810c 2b				dec hl			;810c	2b 	+  
810d 71				ld (hl),c			;810d	71 	q  
810e 2b				dec hl			;810e	2b 	+  
810f d1				pop de			;810f	d1 	.  
8110 c1				pop bc			;8110	c1 	.  
8111 70				ld (hl),b			;8111	70 	p  
8112 2b				dec hl			;8112	2b 	+  
8113 71				ld (hl),c			;8113	71 	q  
8114 d5				push de			;8114	d5 	.  
8115 f5				push af			;8115	f5 	.  
8116 79				ld a,c			;8116	79 	y  
8117 cd 8f 06			call 0068fh		;8117	cd 8f 06 	. . .  
811a f1				pop af			;811a	f1 	.  
811b c9				ret			;811b	c9 	.  
811c fe 20			cp 020h		;811c	fe 20 	.    
811e c8				ret z			;811e	c8 	.  
811f fe 09			cp 009h		;811f	fe 09 	. .  
8121 c8				ret z			;8121	c8 	.  
8122 fe 2c			cp 02ch		;8122	fe 2c 	. ,  
8124 c8				ret z			;8124	c8 	.  
8125 fe 0d			cp 00dh		;8125	fe 0d 	. .  
8127 c8				ret z			;8127	c8 	.  
8128 fe 7f			cp 07fh		;8128	fe 7f 	.   
812a ca 24 05			jp z,00524h		;812a	ca 24 05 	. $ .  
812d c9				ret			;812d	c9 	.  
812e 0e 0d			ld c,00dh		;812e	0e 0d 	. .  
8130 cd 15 00			call 00015h		;8130	cd 15 00 	. . .  
8133 0e 0a			ld c,00ah		;8133	0e 0a 	. .  
8135 cd 15 00			call 00015h		;8135	cd 15 00 	. . .  
8138 c9				ret			;8138	c9 	.  
8139 cd 8c 06			call 0068ch		;8139	cd 8c 06 	. . .  
813c fe 0d			cp 00dh		;813c	fe 0d 	. .  
813e ca 18 c3			jp z,0c318h		;813e	ca 18 c3 	. . .  
8141 88				adc a,b			;8141	88 	.  
8142 04				inc b			;8142	04 	.  
8143 c3 a3 04			jp 004a3h		;8143	c3 a3 04 	. . .  
8146 c3 49 05			jp 00549h		;8146	c3 49 05 	. I .  
8149 c3 ff 05			jp 005ffh		;8149	c3 ff 05 	. . .  
814c c3 6c 05			jp 0056ch		;814c	c3 6c 05 	. l .  
814f c3 53 06			jp 00653h		;814f	c3 53 06 	. S .  
8152 c3 a5 05			jp 005a5h		;8152	c3 a5 05 	. . .  
8155 c3 c4 04			jp 004c4h		;8155	c3 c4 04 	. . .  
8158 c3 d3 04			jp 004d3h		;8158	c3 d3 04 	. . .  
815b c3 fa 04			jp 004fah		;815b	c3 fa 04 	. . .  
815e c3 29 05			jp 00529h		;815e	c3 29 05 	. ) .  
8161 c3 bb 04			jp 004bbh		;8161	c3 bb 04 	. . .  
8164 c3 39 05			jp 00539h		;8164	c3 39 05 	. 9 .  
8167 c3 39 05			jp 00539h		;8167	c3 39 05 	. 9 .  
816a fd e3			ex (sp),iy		;816a	fd e3 	. .  
816c d5				push de			;816c	d5 	.  
816d d9				exx			;816d	d9 	.  
816e e3				ex (sp),hl			;816e	e3 	.  
816f d9				exx			;816f	d9 	.  
8170 dd e5			push ix		;8170	dd e5 	. .  
8172 e5				push hl			;8172	e5 	.  
8173 d5				push de			;8173	d5 	.  
8174 c5				push bc			;8174	c5 	.  
8175 e5				push hl			;8175	e5 	.  
8176 fd e3			ex (sp),iy		;8176	fd e3 	. .  
8178 e1				pop hl			;8178	e1 	.  
8179 cd 87 02			call 00287h		;8179	cd 87 02 	. . .  
817c c1				pop bc			;817c	c1 	.  
817d d1				pop de			;817d	d1 	.  
817e e1				pop hl			;817e	e1 	.  
817f dd e1			pop ix		;817f	dd e1 	. .  
8181 d9				exx			;8181	d9 	.  
8182 e1				pop hl			;8182	e1 	.  
8183 d9				exx			;8183	d9 	.  
8184 fd e1			pop iy		;8184	fd e1 	. .  
8186 c9				ret			;8186	c9 	.  
8187 e9				jp (hl)			;8187	e9 	.  
8188 fe 24			cp 024h		;8188	fe 24 	. $  
818a c8				ret z			;818a	c8 	.  
818b fe 3f			cp 03fh		;818b	fe 3f 	. ?  
818d 20 08			jr nz,l8197h		;818d	20 08 	  .  
818f d9				exx			;818f	d9 	.  
8190 cb 46			bit 0,(hl)		;8190	cb 46 	. F  
8192 d9				exx			;8192	d9 	.  
8193 37				scf			;8193	37 	7  
8194 c8				ret z			;8194	c8 	.  
8195 b7				or a			;8195	b7 	.  
8196 c9				ret			;8196	c9 	.  
8197			l8197h: 
8197 fe 30			cp 030h		;8197	fe 30 	. 0  
8199 d8				ret c			;8199	d8 	.  
819a fe 3a			cp 03ah		;819a	fe 3a 	. :  
819c 3f				ccf			;819c	3f 	?  
819d d0				ret nc			;819d	d0 	.  
819e			l819eh: 
819e fe 41			cp 041h		;819e	fe 41 	. A  
81a0 d8				ret c			;81a0	d8 	.  
81a1 fe 5b			cp 05bh		;81a1	fe 5b 	. [  
81a3 3f				ccf			;81a3	3f 	?  
81a4 d0				ret nc			;81a4	d0 	.  
81a5 d6 20			sub 020h		;81a5	d6 20 	.    
81a7 18 f5			jr l819eh		;81a7	18 f5 	. .  
81a9 06 08			ld b,008h		;81a9	06 08 	. .  
81ab 18 02			jr l81afh		;81ab	18 02 	. .  
81ad 06 03			ld b,003h		;81ad	06 03 	. .  
81af			l81afh: 
81af 0e 20			ld c,020h		;81af	0e 20 	.    
81b1			l81b1h: 
81b1 1a				ld a,(de)			;81b1	1a 	.  
81b2 fe 1b			cp 01bh		;81b2	fe 1b 	. .  
81b4 28 1c			jr z,l81d2h		;81b4	28 1c 	( .  
81b6 fe 2e			cp 02eh		;81b6	fe 2e 	. .  
81b8 28 18			jr z,l81d2h		;81b8	28 18 	( .  
81ba fe 2a			cp 02ah		;81ba	fe 2a 	. *  
81bc 28 0b			jr z,l81c9h		;81bc	28 0b 	( .  
81be cd 88 02			call 00288h		;81be	cd 88 02 	. . .  
81c1 d8				ret c			;81c1	d8 	.  
81c2 77				ld (hl),a			;81c2	77 	w  
81c3 13				inc de			;81c3	13 	.  
81c4 23				inc hl			;81c4	23 	#  
81c5 10 ea			djnz l81b1h		;81c5	10 ea 	. .  
81c7 18 0d			jr l81d6h		;81c7	18 0d 	. .  
81c9			l81c9h: 
81c9 d9				exx			;81c9	d9 	.  
81ca cb 46			bit 0,(hl)		;81ca	cb 46 	. F  
81cc d9				exx			;81cc	d9 	.  
81cd 37				scf			;81cd	37 	7  
81ce c8				ret z			;81ce	c8 	.  
81cf 13				inc de			;81cf	13 	.  
81d0 0e 3f			ld c,03fh		;81d0	0e 3f 	. ?  
81d2			l81d2h: 
81d2 71				ld (hl),c			;81d2	71 	q  
81d3 23				inc hl			;81d3	23 	#  
81d4 10 fc			djnz l81d2h		;81d4	10 fc 	. .  
81d6			l81d6h: 
81d6 b7				or a			;81d6	b7 	.  
81d7 c9				ret			;81d7	c9 	.  
81d8 dd e5			push ix		;81d8	dd e5 	. .  
81da e1				pop hl			;81da	e1 	.  
81db e5				push hl			;81db	e5 	.  
81dc f5				push af			;81dc	f5 	.  
81dd fd e5			push iy		;81dd	fd e5 	. .  
81df e1				pop hl			;81df	e1 	.  
81e0			l81e0h: 
81e0 7e				ld a,(hl)			;81e0	7e 	~  
81e1 23				inc hl			;81e1	23 	#  
81e2 fe 3a			cp 03ah		;81e2	fe 3a 	. :  
81e4 28 0d			jr z,l81f3h		;81e4	28 0d 	( .  
81e6 fe 1b			cp 01bh		;81e6	fe 1b 	. .  
81e8 20 f6			jr nz,l81e0h		;81e8	20 f6 	  .  
81ea f1				pop af			;81ea	f1 	.  
81eb 3a a3 06			ld a,(006a3h)		;81eb	3a a3 06 	: . .  
81ee c6 20			add a,020h		;81ee	c6 20 	.    
81f0 e1				pop hl			;81f0	e1 	.  
81f1 18 3d			jr l8230h		;81f1	18 3d 	. =  
81f3			l81f3h: 
81f3 e5				push hl			;81f3	e5 	.  
81f4 fd e3			ex (sp),iy		;81f4	fd e3 	. .  
81f6 e1				pop hl			;81f6	e1 	.  
81f7 11 ae 03			ld de,003aeh		;81f7	11 ae 03 	. . .  
81fa			l81fah: 
81fa e5				push hl			;81fa	e5 	.  
81fb			l81fbh: 
81fb 1a				ld a,(de)			;81fb	1a 	.  
81fc b7				or a			;81fc	b7 	.  
81fd 28 22			jr z,l8221h		;81fd	28 22 	( "  
81ff eb				ex de,hl			;81ff	eb 	.  
8200 1a				ld a,(de)			;8200	1a 	.  
8201 cd 9e 02			call 0029eh		;8201	cd 9e 02 	. . .  
8204 30 04			jr nc,l820ah		;8204	30 04 	0 .  
8206 fe 3a			cp 03ah		;8206	fe 3a 	. :  
8208 20 17			jr nz,l8221h		;8208	20 17 	  .  
820a			l820ah: 
820a be				cp (hl)			;820a	be 	.  
820b eb				ex de,hl			;820b	eb 	.  
820c 13				inc de			;820c	13 	.  
820d 23				inc hl			;820d	23 	#  
820e 20 06			jr nz,l8216h		;820e	20 06 	  .  
8210 fe 3a			cp 03ah		;8210	fe 3a 	. :  
8212 28 14			jr z,l8228h		;8212	28 14 	( .  
8214 18 e5			jr l81fbh		;8214	18 e5 	. .  
8216			l8216h: 
8216 1a				ld a,(de)			;8216	1a 	.  
8217 13				inc de			;8217	13 	.  
8218 fe 3a			cp 03ah		;8218	fe 3a 	. :  
821a 20 fa			jr nz,l8216h		;821a	20 fa 	  .  
821c 13				inc de			;821c	13 	.  
821d 13				inc de			;821d	13 	.  
821e e1				pop hl			;821e	e1 	.  
821f 18 d9			jr l81fah		;821f	18 d9 	. .  
8221			l8221h: 
8221 e1				pop hl			;8221	e1 	.  
8222 f1				pop af			;8222	f1 	.  
8223 f1				pop af			;8223	f1 	.  
8224 3e 02			ld a,002h		;8224	3e 02 	> .  
8226 37				scf			;8226	37 	7  
8227 c9				ret			;8227	c9 	.  
8228			l8228h: 
8228 e1				pop hl			;8228	e1 	.  
8229 f1				pop af			;8229	f1 	.  
822a b7				or a			;822a	b7 	.  
822b 28 01			jr z,l822eh		;822b	28 01 	( .  
822d 13				inc de			;822d	13 	.  
822e			l822eh: 
822e 1a				ld a,(de)			;822e	1a 	.  
822f e1				pop hl			;822f	e1 	.  
8230			l8230h: 
8230 fe 20			cp 020h		;8230	fe 20 	.    
8232 3f				ccf			;8232	3f 	?  
8233 d0				ret nc			;8233	d0 	.  
8234 07				rlca			;8234	07 	.  
8235 1f				rra			;8235	1f 	.  
8236 30 03			jr nc,l823bh		;8236	30 03 	0 .  
8238 3e 02			ld a,002h		;8238	3e 02 	> .  
823a c9				ret			;823a	c9 	.  
823b			l823bh: 
823b f5				push af			;823b	f5 	.  
823c e6 0f			and 00fh		;823c	e6 0f 	. .  
823e c6 41			add a,041h		;823e	c6 41 	. A  
8240 32 a4 06			ld (006a4h),a		;8240	32 a4 06 	2 . .  
8243 fd e5			push iy		;8243	fd e5 	. .  
8245 d1				pop de			;8245	d1 	.  
8246 36 00			ld (hl),000h		;8246	36 00 	6 .  
8248 23				inc hl			;8248	23 	#  
8249 e5				push hl			;8249	e5 	.  
824a cd a9 02			call 002a9h		;824a	cd a9 02 	. . .  
824d c1				pop bc			;824d	c1 	.  
824e 38 59			jr c,l82a9h		;824e	38 59 	8 Y  
8250 0a				ld a,(bc)			;8250	0a 	.  
8251 fe 20			cp 020h		;8251	fe 20 	.    
8253 28 54			jr z,l82a9h		;8253	28 54 	( T  
8255 1a				ld a,(de)			;8255	1a 	.  
8256 fe 1b			cp 01bh		;8256	fe 1b 	. .  
8258 28 05			jr z,l825fh		;8258	28 05 	( .  
825a fe 2e			cp 02eh		;825a	fe 2e 	. .  
825c 20 4b			jr nz,l82a9h		;825c	20 4b 	  K  
825e 13				inc de			;825e	13 	.  
825f			l825fh: 
825f e5				push hl			;825f	e5 	.  
8260 cd ad 02			call 002adh		;8260	cd ad 02 	. . .  
8263 36 00			ld (hl),000h		;8263	36 00 	6 .  
8265 e1				pop hl			;8265	e1 	.  
8266 38 41			jr c,l82a9h		;8266	38 41 	8 A  
8268 1a				ld a,(de)			;8268	1a 	.  
8269 fe 1b			cp 01bh		;8269	fe 1b 	. .  
826b 20 3c			jr nz,l82a9h		;826b	20 3c 	  <  
826d d9				exx			;826d	d9 	.  
826e e5				push hl			;826e	e5 	.  
826f cb 56			bit 2,(hl)		;826f	cb 56 	. V  
8271 d9				exx			;8271	d9 	.  
8272 d1				pop de			;8272	d1 	.  
8273 13				inc de			;8273	13 	.  
8274 28 22			jr z,l8298h		;8274	28 22 	( "  
8276 06 03			ld b,003h		;8276	06 03 	. .  
8278 e5				push hl			;8278	e5 	.  
8279			l8279h: 
8279 1a				ld a,(de)			;8279	1a 	.  
827a be				cp (hl)			;827a	be 	.  
827b 20 0a			jr nz,l8287h		;827b	20 0a 	  .  
827d 23				inc hl			;827d	23 	#  
827e 13				inc de			;827e	13 	.  
827f 10 f8			djnz l8279h		;827f	10 f8 	. .  
8281 e1				pop hl			;8281	e1 	.  
8282 f1				pop af			;8282	f1 	.  
8283 3e 06			ld a,006h		;8283	3e 06 	> .  
8285 37				scf			;8285	37 	7  
8286 c9				ret			;8286	c9 	.  
8287			l8287h: 
8287 d9				exx			;8287	d9 	.  
8288 cb 5e			bit 3,(hl)		;8288	cb 5e 	. ^  
828a d9				exx			;828a	d9 	.  
828b e1				pop hl			;828b	e1 	.  
828c 28 18			jr z,l82a6h		;828c	28 18 	( .  
828e 04				inc b			;828e	04 	.  
828f			l828fh: 
828f 13				inc de			;828f	13 	.  
8290 10 fd			djnz l828fh		;8290	10 fd 	. .  
8292 0e 03			ld c,003h		;8292	0e 03 	. .  
8294 ed b0			ldir		;8294	ed b0 	. .  
8296 18 0e			jr l82a6h		;8296	18 0e 	. .  
8298			l8298h: 
8298 d9				exx			;8298	d9 	.  
8299 cb 4e			bit 1,(hl)		;8299	cb 4e 	. N  
829b d9				exx			;829b	d9 	.  
829c 20 05			jr nz,l82a3h		;829c	20 05 	  .  
829e 7e				ld a,(hl)			;829e	7e 	~  
829f fe 20			cp 020h		;829f	fe 20 	.    
82a1 20 03			jr nz,l82a6h		;82a1	20 03 	  .  
82a3			l82a3h: 
82a3 cd ad 02			call 002adh		;82a3	cd ad 02 	. . .  
82a6			l82a6h: 
82a6 f1				pop af			;82a6	f1 	.  
82a7 b7				or a			;82a7	b7 	.  
82a8 c9				ret			;82a8	c9 	.  
82a9			l82a9h: 
82a9 f1				pop af			;82a9	f1 	.  
82aa 3e 03			ld a,003h		;82aa	3e 03 	> .  
82ac 37				scf			;82ac	37 	7  
82ad c9				ret			;82ad	c9 	.  
82ae 43				ld b,e			;82ae	43 	C  
82af 4f				ld c,a			;82af	4f 	O  
82b0 4e				ld c,(hl)			;82b0	4e 	N  
82b1 3a 01 02			ld a,(00201h)		;82b1	3a 01 02 	: . .  
82b4 54				ld d,h			;82b4	54 	T  
82b5 54				ld d,h			;82b5	54 	T  
82b6 59				ld e,c			;82b6	59 	Y  
82b7 3a 01 02			ld a,(00201h)		;82b7	3a 01 02 	: . .  
82ba 52				ld d,d			;82ba	52 	R  
82bb 44				ld b,h			;82bb	44 	D  
82bc 52				ld d,d			;82bc	52 	R  
82bd 3a 03 ff			ld a,(0ff03h)		;82bd	3a 03 ff 	: . .  
82c0 50				ld d,b			;82c0	50 	P  
82c1 55				ld d,l			;82c1	55 	U  
82c2 4e				ld c,(hl)			;82c2	4e 	N  
82c3 3a ff 04			ld a,(004ffh)		;82c3	3a ff 04 	: . .  
82c6 4c				ld c,h			;82c6	4c 	L  
82c7 53				ld d,e			;82c7	53 	S  
82c8 54				ld d,h			;82c8	54 	T  
82c9 3a ff 05			ld a,(005ffh)		;82c9	3a ff 05 	: . .  
82cc 4c				ld c,h			;82cc	4c 	L  
82cd 50				ld d,b			;82cd	50 	P  
82ce 3a ff 05			ld a,(005ffh)		;82ce	3a ff 05 	: . .  
82d1 41				ld b,c			;82d1	41 	A  
82d2 3a 20 20			ld a,(02020h)		;82d2	3a 20 20 	:      
82d5 42				ld b,d			;82d5	42 	B  
82d6 3a 21 21			ld a,(02121h)		;82d6	3a 21 21 	: ! !  
82d9 43				ld b,e			;82d9	43 	C  
82da 3a 22 22			ld a,(02222h)		;82da	3a 22 22 	: " "  
82dd 44				ld b,h			;82dd	44 	D  
82de 3a 23 23			ld a,(02323h)		;82de	3a 23 23 	: # #  
82e1 00				nop			;82e1	00 	.  
82e2 3a 24 24			ld a,(02424h)		;82e2	3a 24 24 	: $ $  
82e5 46				ld b,(hl)			;82e5	46 	F  
82e6 3a 25 25			ld a,(02525h)		;82e6	3a 25 25 	: % %  
82e9 47				ld b,a			;82e9	47 	G  
82ea 3a 26 26			ld a,(02626h)		;82ea	3a 26 26 	: & &  
82ed 48				ld c,b			;82ed	48 	H  
82ee 3a 27 27			ld a,(02727h)		;82ee	3a 27 27 	: ' '  
82f1 49				ld c,c			;82f1	49 	I  
82f2 3a 28 28			ld a,(02828h)		;82f2	3a 28 28 	: ( (  
82f5 4a				ld c,d			;82f5	4a 	J  
82f6 3a 29 29			ld a,(02929h)		;82f6	3a 29 29 	: ) )  
82f9 4b				ld c,e			;82f9	4b 	K  
82fa 3a 2a 2a			ld a,(02a2ah)		;82fa	3a 2a 2a 	: * *  
82fd 4c				ld c,h			;82fd	4c 	L  
82fe 3a 2b 2b			ld a,(02b2bh)		;82fe	3a 2b 2b 	: + +  
8301 4d				ld c,l			;8301	4d 	M  
8302 3a 2c 2c			ld a,(02c2ch)		;8302	3a 2c 2c 	: , ,  
8305 4e				ld c,(hl)			;8305	4e 	N  
8306 3a 2d 2d			ld a,(02d2dh)		;8306	3a 2d 2d 	: - -  
8309 4f				ld c,a			;8309	4f 	O  
830a 3a 2e 2e			ld a,(02e2eh)		;830a	3a 2e 2e 	: . .  
830d 50				ld d,b			;830d	50 	P  
830e 3a 2f 2f			ld a,(02f2fh)		;830e	3a 2f 2f 	: / /  
8311 00				nop			;8311	00 	.  
8312 11 80 00			ld de,00080h		;8312	11 80 00 	. . .  
8315 0e 1a			ld c,01ah		;8315	0e 1a 	. .  
8317 c3 74 04			jp 00474h		;8317	c3 74 04 	. t .  
831a 21 5c 00			ld hl,0005ch		;831a	21 5c 00 	! \ .  
831d af				xor a			;831d	af 	.  
831e e5				push hl			;831e	e5 	.  
831f cd db 02			call 002dbh		;831f	cd db 02 	. . .  
8322 d1				pop de			;8322	d1 	.  
8323 d8				ret c			;8323	d8 	.  
8324 fe 20			cp 020h		;8324	fe 20 	.    
8326 30 03			jr nc,l832bh		;8326	30 03 	0 .  
8328 3e 02			ld a,002h		;8328	3e 02 	> .  
832a c9				ret			;832a	c9 	.  
832b			l832bh: 
832b d5				push de			;832b	d5 	.  
832c cd b3 04			call 004b3h		;832c	cd b3 04 	. . .  
832f d1				pop de			;832f	d1 	.  
8330 0e 11			ld c,011h		;8330	0e 11 	. .  
8332 cd 81 04			call 00481h		;8332	cd 81 04 	. . .  
8335 d0				ret nc			;8335	d0 	.  
8336 3e 07			ld a,007h		;8336	3e 07 	> .  
8338 c9				ret			;8338	c9 	.  
8339 0e 0c			ld c,00ch		;8339	0e 0c 	. .  
833b cd 74 04			call 00474h		;833b	cd 74 04 	. t .  
833e 7d				ld a,l			;833e	7d 	}  
833f fe 20			cp 020h		;833f	fe 20 	.    
8341 38 0e			jr c,l8351h		;8341	38 0e 	8 .  
8343 0e 1f			ld c,01fh		;8343	0e 1f 	. .  
8345 cd 74 04			call 00474h		;8345	cd 74 04 	. t .  
8348 11 05 00			ld de,00005h		;8348	11 05 00 	. . .  
834b 19				add hl,de			;834b	19 	.  
834c 5e				ld e,(hl)			;834c	5e 	^  
834d 23				inc hl			;834d	23 	#  
834e 56				ld d,(hl)			;834e	56 	V  
834f 18 08			jr l8359h		;834f	18 08 	. .  
8351			l8351h: 
8351 2a 06 00			ld hl,(00006h)		;8351	2a 06 00 	* . .  
8354 2e 3e			ld l,03eh		;8354	2e 3e 	. >  
8356 5e				ld e,(hl)			;8356	5e 	^  
8357 16 00			ld d,000h		;8357	16 00 	. .  
8359			l8359h: 
8359 13				inc de			;8359	13 	.  
835a d5				push de			;835a	d5 	.  
835b 0e 1b			ld c,01bh		;835b	0e 1b 	. .  
835d cd 74 04			call 00474h		;835d	cd 74 04 	. t .  
8360 60				ld h,b			;8360	60 	`  
8361 6f				ld l,a			;8361	6f 	o  
8362 d1				pop de			;8362	d1 	.  
8363			l8363h: 
8363 7e				ld a,(hl)			;8363	7e 	~  
8364 23				inc hl			;8364	23 	#  
8365 06 08			ld b,008h		;8365	06 08 	. .  
8367			l8367h: 
8367 17				rla			;8367	17 	.  
8368 d0				ret nc			;8368	d0 	.  
8369 4f				ld c,a			;8369	4f 	O  
836a 1b				dec de			;836a	1b 	.  
836b 7a				ld a,d			;836b	7a 	z  
836c b3				or e			;836c	b3 	.  
836d 37				scf			;836d	37 	7  
836e c8				ret z			;836e	c8 	.  
836f 79				ld a,c			;836f	79 	y  
8370 10 f5			djnz l8367h		;8370	10 f5 	. .  
8372 18 ef			jr l8363h		;8372	18 ef 	. .  
8374 dd e5			push ix		;8374	dd e5 	. .  
8376 fd e5			push iy		;8376	fd e5 	. .  
8378 cd 05 00			call 00005h		;8378	cd 05 00 	. . .  
837b fd e1			pop iy		;837b	fd e1 	. .  
837d dd e1			pop ix		;837d	dd e1 	. .  
837f b7				or a			;837f	b7 	.  
8380 c9				ret			;8380	c9 	.  
8381 cd 74 04			call 00474h		;8381	cd 74 04 	. t .  
8384 fe ff			cp 0ffh		;8384	fe ff 	. .  
8386 3f				ccf			;8386	3f 	?  
8387 c9				ret			;8387	c9 	.  
8388 cd 6a 02			call 0026ah		;8388	cd 6a 02 	. j .  
838b 0e 0c			ld c,00ch		;838b	0e 0c 	. .  
838d cd 74 04			call 00474h		;838d	cd 74 04 	. t .  
8390 7d				ld a,l			;8390	7d 	}  
8391 fe 20			cp 020h		;8391	fe 20 	.    
8393 30 04			jr nc,l8399h		;8393	30 04 	0 .  
8395 af				xor a			;8395	af 	.  
8396 32 e1 03			ld (003e1h),a		;8396	32 e1 03 	2 . .  
8399			l8399h: 
8399 0e 19			ld c,019h		;8399	0e 19 	. .  
839b cd 74 04			call 00474h		;839b	cd 74 04 	. t .  
839e 32 a3 06			ld (006a3h),a		;839e	32 a3 06 	2 . .  
83a1 18 03			jr l83a6h		;83a1	18 03 	. .  
83a3 cd 6a 02			call 0026ah		;83a3	cd 6a 02 	. j .  
83a6			l83a6h: 
83a6 0e 0d			ld c,00dh		;83a6	0e 0d 	. .  
83a8 cd 74 04			call 00474h		;83a8	cd 74 04 	. t .  
83ab 3a a3 06			ld a,(006a3h)		;83ab	3a a3 06 	: . .  
83ae 18 03			jr l83b3h		;83ae	18 03 	. .  
83b0 dd 7e 21			ld a,(ix+021h)		;83b0	dd 7e 21 	. ~ !  
83b3			l83b3h: 
83b3 e6 0f			and 00fh		;83b3	e6 0f 	. .  
83b5 5f				ld e,a			;83b5	5f 	_  
83b6 0e 0e			ld c,00eh		;83b6	0e 0e 	. .  
83b8 c3 74 04			jp 00474h		;83b8	c3 74 04 	. t .  
83bb cd 6a 02			call 0026ah		;83bb	cd 6a 02 	. j .  
83be 21 5c 00			ld hl,0005ch		;83be	21 5c 00 	! \ .  
83c1 c3 db 02			jp 002dbh		;83c1	c3 db 02 	. . .  
83c4 cd 6a 02			call 0026ah		;83c4	cd 6a 02 	. j .  
83c7 cd 1a 04			call 0041ah		;83c7	cd 1a 04 	. . .  
83ca d8				ret c			;83ca	d8 	.  
83cb 11 5c 00			ld de,0005ch		;83cb	11 5c 00 	. \ .  
83ce 0e 13			ld c,013h		;83ce	0e 13 	. .  
83d0 c3 74 04			jp 00474h		;83d0	c3 74 04 	. t .  
83d3 cd 6a 02			call 0026ah		;83d3	cd 6a 02 	. j .  
83d6 c5				push bc			;83d6	c5 	.  
83d7 cd 1a 04			call 0041ah		;83d7	cd 1a 04 	. . .  
83da fd e1			pop iy		;83da	fd e1 	. .  
83dc d8				ret c			;83dc	d8 	.  
83dd d9				exx			;83dd	d9 	.  
83de 23				inc hl			;83de	23 	#  
83df 23				inc hl			;83df	23 	#  
83e0 23				inc hl			;83e0	23 	#  
83e1 23				inc hl			;83e1	23 	#  
83e2 d9				exx			;83e2	d9 	.  
83e3 21 6c 00			ld hl,0006ch		;83e3	21 6c 00 	! l .  
83e6 cd 1d 04			call 0041dh		;83e6	cd 1d 04 	. . .  
83e9 30 0b			jr nc,l83f6h		;83e9	30 0b 	0 .  
83eb fe 07			cp 007h		;83eb	fe 07 	. .  
83ed d8				ret c			;83ed	d8 	.  
83ee 11 5c 00			ld de,0005ch		;83ee	11 5c 00 	. \ .  
83f1 0e 17			ld c,017h		;83f1	0e 17 	. .  
83f3 c3 74 04			jp 00474h		;83f3	c3 74 04 	. t .  
83f6			l83f6h: 
83f6 37				scf			;83f6	37 	7  
83f7 3e 08			ld a,008h		;83f7	3e 08 	> .  
83f9 c9				ret			;83f9	c9 	.  
83fa cd 6a 02			call 0026ah		;83fa	cd 6a 02 	. j .  
83fd			l83fdh: 
83fd cd 1a 04			call 0041ah		;83fd	cd 1a 04 	. . .  
8400 30 13			jr nc,l8415h		;8400	30 13 	0 .  
8402 fe 03			cp 003h		;8402	fe 03 	. .  
8404 37				scf			;8404	37 	7  
8405 c0				ret nz			;8405	c0 	.  
8406 fd 7e 00			ld a,(iy+000h)		;8406	fd 7e 00 	. ~ .  
8409 fe 1b			cp 01bh		;8409	fe 1b 	. .  
840b fd 21 a4 06		ld iy,006a4h		;840b	fd 21 a4 06 	. ! . .  
840f 28 ec			jr z,l83fdh		;840f	28 ec 	( .  
8411 3e 03			ld a,003h		;8411	3e 03 	> .  
8413 37				scf			;8413	37 	7  
8414 c9				ret			;8414	c9 	.  
8415			l8415h: 
8415 d1				pop de			;8415	d1 	.  
8416 d1				pop de			;8416	d1 	.  
8417 0f				rrca			;8417	0f 	.  
8418 0f				rrca			;8418	0f 	.  
8419 0f				rrca			;8419	0f 	.  
841a e6 60			and 060h		;841a	e6 60 	. `  
841c 01 80 00			ld bc,00080h		;841c	01 80 00 	. . .  
841f b1				or c			;841f	b1 	.  
8420 4f				ld c,a			;8420	4f 	O  
8421 03				inc bc			;8421	03 	.  
8422 3a a4 06			ld a,(006a4h)		;8422	3a a4 06 	: . .  
8425 b7				or a			;8425	b7 	.  
8426 c3 7d 02			jp 0027dh		;8426	c3 7d 02 	. } .  
8429 cd 6a 02			call 0026ah		;8429	cd 6a 02 	. j .  
842c 11 5c 00			ld de,0005ch		;842c	11 5c 00 	. \ .  
842f 0e 12			ld c,012h		;842f	0e 12 	. .  
8431 cd 81 04			call 00481h		;8431	cd 81 04 	. . .  
8434 30 df			jr nc,l8415h		;8434	30 df 	0 .  
8436 3e 07			ld a,007h		;8436	3e 07 	> .  
8438 c9				ret			;8438	c9 	.  
8439 c9				ret			;8439	c9 	.  
843a dd 77 21			ld (ix+021h),a		;843a	dd 77 21 	. w !  
843d fe 20			cp 020h		;843d	fe 20 	.    
843f 3f				ccf			;843f	3f 	?  
8440 d0				ret nc			;8440	d0 	.  
8441 cd b3 04			call 004b3h		;8441	cd b3 04 	. . .  
8444 dd e5			push ix		;8444	dd e5 	. .  
8446 d1				pop de			;8446	d1 	.  
8447 37				scf			;8447	37 	7  
8448 c9				ret			;8448	c9 	.  
8449 cd 6a 02			call 0026ah		;8449	cd 6a 02 	. j .  
844c dd 36 22 80		ld (ix+022h),080h		;844c	dd 36 22 80 	. 6 " .  
8450 af				xor a			;8450	af 	.  
8451 dd 77 20			ld (ix+020h),a		;8451	dd 77 20 	. w    
8454 dd 36 21 ff		ld (ix+021h),0ffh		;8454	dd 36 21 ff 	. 6 ! .  
8458 cd d8 02			call 002d8h		;8458	cd d8 02 	. . .  
845b d8				ret c			;845b	d8 	.  
845c cd 3a 05			call 0053ah		;845c	cd 3a 05 	. : .  
845f d0				ret nc			;845f	d0 	.  
8460 0e 0f			ld c,00fh		;8460	0e 0f 	. .  
8462 cd 81 04			call 00481h		;8462	cd 81 04 	. . .  
8465 d0				ret nc			;8465	d0 	.  
8466 dd 77 21			ld (ix+021h),a		;8466	dd 77 21 	. w !  
8469 3e 07			ld a,007h		;8469	3e 07 	> .  
846b c9				ret			;846b	c9 	.  
846c cd 6a 02			call 0026ah		;846c	cd 6a 02 	. j .  
846f af				xor a			;846f	af 	.  
8470 dd 77 22			ld (ix+022h),a		;8470	dd 77 22 	. w "  
8473 dd 77 20			ld (ix+020h),a		;8473	dd 77 20 	. w    
8476 3d				dec a			;8476	3d 	=  
8477 dd 77 21			ld (ix+021h),a		;8477	dd 77 21 	. w !  
847a cd d8 02			call 002d8h		;847a	cd d8 02 	. . .  
847d d8				ret c			;847d	d8 	.  
847e cd 3a 05			call 0053ah		;847e	cd 3a 05 	. : .  
8481 d0				ret nc			;8481	d0 	.  
8482 d5				push de			;8482	d5 	.  
8483 0e 11			ld c,011h		;8483	0e 11 	. .  
8485 cd 74 04			call 00474h		;8485	cd 74 04 	. t .  
8488 d1				pop de			;8488	d1 	.  
8489 fe ff			cp 0ffh		;8489	fe ff 	. .  
848b 3e 08			ld a,008h		;848b	3e 08 	> .  
848d 38 11			jr c,l84a0h		;848d	38 11 	8 .  
848f d5				push de			;848f	d5 	.  
8490 cd 39 04			call 00439h		;8490	cd 39 04 	. 9 .  
8493 d1				pop de			;8493	d1 	.  
8494 3e 0b			ld a,00bh		;8494	3e 0b 	> .  
8496 38 08			jr c,l84a0h		;8496	38 08 	8 .  
8498 0e 16			ld c,016h		;8498	0e 16 	. .  
849a cd 81 04			call 00481h		;849a	cd 81 04 	. . .  
849d d0				ret nc			;849d	d0 	.  
849e 3e 09			ld a,009h		;849e	3e 09 	> .  
84a0			l84a0h: 
84a0 dd 36 21 ff		ld (ix+021h),0ffh		;84a0	dd 36 21 ff 	. 6 ! .  
84a4 c9				ret			;84a4	c9 	.  
84a5 cd 6a 02			call 0026ah		;84a5	cd 6a 02 	. j .  
84a8 dd 7e 21			ld a,(ix+021h)		;84a8	dd 7e 21 	. ~ !  
84ab fe ff			cp 0ffh		;84ab	fe ff 	. .  
84ad c8				ret z			;84ad	c8 	.  
84ae fe 20			cp 020h		;84ae	fe 20 	.    
84b0 3f				ccf			;84b0	3f 	?  
84b1 30 1f			jr nc,l84d2h		;84b1	30 1f 	0 .  
84b3			l84b3h: 
84b3 3e 1a			ld a,01ah		;84b3	3e 1a 	> .  
84b5 cd 53 06			call 00653h		;84b5	cd 53 06 	. S .  
84b8 30 05			jr nc,l84bfh		;84b8	30 05 	0 .  
84ba fe 0b			cp 00bh		;84ba	fe 0b 	. .  
84bc 37				scf			;84bc	37 	7  
84bd 20 13			jr nz,l84d2h		;84bd	20 13 	  .  
84bf			l84bfh: 
84bf dd 7e 22			ld a,(ix+022h)		;84bf	dd 7e 22 	. ~ "  
84c2 b7				or a			;84c2	b7 	.  
84c3 20 ee			jr nz,l84b3h		;84c3	20 ee 	  .  
84c5 cd b0 04			call 004b0h		;84c5	cd b0 04 	. . .  
84c8 dd e5			push ix		;84c8	dd e5 	. .  
84ca d1				pop de			;84ca	d1 	.  
84cb 0e 10			ld c,010h		;84cb	0e 10 	. .  
84cd cd 81 04			call 00481h		;84cd	cd 81 04 	. . .  
84d0 3e 0a			ld a,00ah		;84d0	3e 0a 	> .  
84d2			l84d2h: 
84d2 dd 36 21 ff		ld (ix+021h),0ffh		;84d2	dd 36 21 ff 	. 6 ! .  
84d6 c9				ret			;84d6	c9 	.  
84d7 bf				cp a			;84d7	bf 	.  
84d8 18 03			jr l84ddh		;84d8	18 03 	. .  
84da 47				ld b,a			;84da	47 	G  
84db 04				inc b			;84db	04 	.  
84dc b8				cp b			;84dc	b8 	.  
84dd			l84ddh: 
84dd dd e5			push ix		;84dd	dd e5 	. .  
84df d1				pop de			;84df	d1 	.  
84e0 eb				ex de,hl			;84e0	eb 	.  
84e1 01 23 00			ld bc,00023h		;84e1	01 23 00 	. # .  
84e4 09				add hl,bc			;84e4	09 	.  
84e5 28 04			jr z,l84ebh		;84e5	28 04 	( .  
84e7 dd 4e 22			ld c,(ix+022h)		;84e7	dd 4e 22 	. N "  
84ea 09				add hl,bc			;84ea	09 	.  
84eb			l84ebh: 
84eb eb				ex de,hl			;84eb	eb 	.  
84ec c9				ret			;84ec	c9 	.  
84ed dd 7e 21			ld a,(ix+021h)		;84ed	dd 7e 21 	. ~ !  
84f0 b7				or a			;84f0	b7 	.  
84f1 37				scf			;84f1	37 	7  
84f2 c8				ret z			;84f2	c8 	.  
84f3 3c				inc a			;84f3	3c 	<  
84f4 c8				ret z			;84f4	c8 	.  
84f5 fe 20			cp 020h		;84f5	fe 20 	.    
84f7 3d				dec a			;84f7	3d 	=  
84f8 3f				ccf			;84f8	3f 	?  
84f9 d8				ret c			;84f9	d8 	.  
84fa 4f				ld c,a			;84fa	4f 	O  
84fb cd 74 04			call 00474h		;84fb	cd 74 04 	. t .  
84fe c9				ret			;84fe	c9 	.  
84ff e5				push hl			;84ff	e5 	.  
8500 d5				push de			;8500	d5 	.  
8501 c5				push bc			;8501	c5 	.  
8502 cd ed 05			call 005edh		;8502	cd ed 05 	. . .  
8505 30 48			jr nc,l854fh		;8505	30 48 	0 H  
8507 20 0a			jr nz,l8513h		;8507	20 0a 	  .  
8509 dd 7e 21			ld a,(ix+021h)		;8509	dd 7e 21 	. ~ !  
850c 3c				inc a			;850c	3c 	<  
850d 28 40			jr z,l854fh		;850d	28 40 	( @  
850f 3e 04			ld a,004h		;850f	3e 04 	> .  
8511 18 3c			jr l854fh		;8511	18 3c 	. <  
8513			l8513h: 
8513 dd 7e 22			ld a,(ix+022h)		;8513	dd 7e 22 	. ~ "  
8516 d6 80			sub 080h		;8516	d6 80 	. .  
8518 20 2d			jr nz,l8547h		;8518	20 2d 	  -  
851a cd b0 04			call 004b0h		;851a	cd b0 04 	. . .  
851d cd d7 05			call 005d7h		;851d	cd d7 05 	. . .  
8520 cd 15 04			call 00415h		;8520	cd 15 04 	. . .  
8523 dd e5			push ix		;8523	dd e5 	. .  
8525 d1				pop de			;8525	d1 	.  
8526 0e 14			ld c,014h		;8526	0e 14 	. .  
8528 cd 74 04			call 00474h		;8528	cd 74 04 	. t .  
852b f5				push af			;852b	f5 	.  
852c cd 12 04			call 00412h		;852c	cd 12 04 	. . .  
852f f1				pop af			;852f	f1 	.  
8530 dd 36 22 00		ld (ix+022h),000h		;8530	dd 36 22 00 	. 6 " .  
8534 28 11			jr z,l8547h		;8534	28 11 	( .  
8536 3d				dec a			;8536	3d 	=  
8537 37				scf			;8537	37 	7  
8538 dd 77 21			ld (ix+021h),a		;8538	dd 77 21 	. w !  
853b 3e 04			ld a,004h		;853b	3e 04 	> .  
853d 28 10			jr z,l854fh		;853d	28 10 	( .  
853f dd 36 21 ff		ld (ix+021h),0ffh		;853f	dd 36 21 ff 	. 6 ! .  
8543 3e 01			ld a,001h		;8543	3e 01 	> .  
8545 18 08			jr l854fh		;8545	18 08 	. .  
8547			l8547h: 
8547 cd da 05			call 005dah		;8547	cd da 05 	. . .  
854a 1a				ld a,(de)			;854a	1a 	.  
854b dd 34 22			inc (ix+022h)		;854b	dd 34 22 	. 4 "  
854e b7				or a			;854e	b7 	.  
854f			l854fh: 
854f c1				pop bc			;854f	c1 	.  
8550 d1				pop de			;8550	d1 	.  
8551 e1				pop hl			;8551	e1 	.  
8552 c9				ret			;8552	c9 	.  
8553 e5				push hl			;8553	e5 	.  
8554 d5				push de			;8554	d5 	.  
8555 c5				push bc			;8555	c5 	.  
8556 f5				push af			;8556	f5 	.  
8557 5f				ld e,a			;8557	5f 	_  
8558 cd ed 05			call 005edh		;8558	cd ed 05 	. . .  
855b 30 34			jr nc,l8591h		;855b	30 34 	0 4  
855d 28 3e			jr z,l859dh		;855d	28 3e 	( >  
855f 7b				ld a,e			;855f	7b 	{  
8560 cd da 05			call 005dah		;8560	cd da 05 	. . .  
8563 12				ld (de),a			;8563	12 	.  
8564 dd 34 22			inc (ix+022h)		;8564	dd 34 22 	. 4 "  
8567 3e 80			ld a,080h		;8567	3e 80 	> .  
8569 dd 96 22			sub (ix+022h)		;8569	dd 96 22 	. . "  
856c 20 23			jr nz,l8591h		;856c	20 23 	  #  
856e cd b0 04			call 004b0h		;856e	cd b0 04 	. . .  
8571 cd d7 05			call 005d7h		;8571	cd d7 05 	. . .  
8574 cd 15 04			call 00415h		;8574	cd 15 04 	. . .  
8577 dd e5			push ix		;8577	dd e5 	. .  
8579 d1				pop de			;8579	d1 	.  
857a 0e 15			ld c,015h		;857a	0e 15 	. .  
857c cd 74 04			call 00474h		;857c	cd 74 04 	. t .  
857f dd 36 22 00		ld (ix+022h),000h		;857f	dd 36 22 00 	. 6 " .  
8583 f5				push af			;8583	f5 	.  
8584 cd 12 04			call 00412h		;8584	cd 12 04 	. . .  
8587 f1				pop af			;8587	f1 	.  
8588 e6 03			and 003h		;8588	e6 03 	. .  
858a 20 09			jr nz,l8595h		;858a	20 09 	  .  
858c cd 39 04			call 00439h		;858c	cd 39 04 	. 9 .  
858f 38 0a			jr c,l859bh		;858f	38 0a 	8 .  
8591			l8591h: 
8591 f1				pop af			;8591	f1 	.  
8592 b7				or a			;8592	b7 	.  
8593 18 0a			jr l859fh		;8593	18 0a 	. .  
8595			l8595h: 
8595 fe 02			cp 002h		;8595	fe 02 	. .  
8597 3e 09			ld a,009h		;8597	3e 09 	> .  
8599 20 02			jr nz,l859dh		;8599	20 02 	  .  
859b			l859bh: 
859b 3e 0b			ld a,00bh		;859b	3e 0b 	> .  
859d			l859dh: 
859d c1				pop bc			;859d	c1 	.  
859e 37				scf			;859e	37 	7  
859f			l859fh: 
859f c1				pop bc			;859f	c1 	.  
85a0 d1				pop de			;85a0	d1 	.  
85a1 e1				pop hl			;85a1	e1 	.  
85a2 c9				ret			;85a2	c9 	.  
85a3 00				nop			;85a3	00 	.  
85a4 41				ld b,c			;85a4	41 	A  
85a5 3a 2a 1b			ld a,(01b2ah)		;85a5	3a 2a 1b 	: * .  
85a8 54				ld d,h			;85a8	54 	T  
85a9 58				ld e,b			;85a9	58 	X  
85aa 45				ld b,l			;85aa	45 	E  
85ab 44				ld b,h			;85ab	44 	D  
85ac 20 56			jr nz,l8604h		;85ac	20 56 	  V  
85ae 20 34			jr nz,$+54		;85ae	20 34 	  4  
85b0 2e 31			ld l,031h		;85b0	2e 31 	. 1  
85b2 20 45			jr nz,$+71		;85b2	20 45 	  E  
85b4 0d				dec c			;85b4	0d 	.  
85b5 43				ld b,e			;85b5	43 	C  
85b6 6f				ld l,a			;85b6	6f 	o  
85b7 70				ld (hl),b			;85b7	70 	p  
85b8 79				ld a,c			;85b8	79 	y  
85b9 72				ld (hl),d			;85b9	72 	r  
85ba 69				ld l,c			;85ba	69 	i  
85bb 67				ld h,a			;85bb	67 	g  
85bc 68				ld l,b			;85bc	68 	h  
85bd 74				ld (hl),h			;85bd	74 	t  
85be 20 28			jr nz,l85e8h		;85be	20 28 	  (  
85c0 63				ld h,e			;85c0	63 	c  
85c1 29				add hl,hl			;85c1	29 	)  
85c2 20 31			jr nz,$+51		;85c2	20 31 	  1  
85c4 39				add hl,sp			;85c4	39 	9  
85c5 38 30			jr c,l85f7h		;85c5	38 30 	8 0  
85c7 20 62			jr nz,l862bh		;85c7	20 62 	  b  
85c9 79				ld a,c			;85c9	79 	y  
85ca 20 52			jr nz,$+84		;85ca	20 52 	  R  
85cc 65				ld h,l			;85cc	65 	e  
85cd 73				ld (hl),e			;85cd	73 	s  
85ce 65				ld h,l			;85ce	65 	e  
85cf 61				ld h,c			;85cf	61 	a  
85d0 72				ld (hl),d			;85d0	72 	r  
85d1 63				ld h,e			;85d1	63 	c  
85d2 68				ld l,b			;85d2	68 	h  
85d3 20 4d			jr nz,$+79		;85d3	20 4d 	  M  
85d5 61				ld h,c			;85d5	61 	a  
85d6 63				ld h,e			;85d6	63 	c  
85d7 68				ld l,b			;85d7	68 	h  
85d8 69				ld l,c			;85d8	69 	i  
85d9 6e				ld l,(hl)			;85d9	6e 	n  
85da 65				ld h,l			;85da	65 	e  
85db 73				ld (hl),e			;85db	73 	s  
85dc 0d				dec c			;85dc	0d 	.  
85dd eb				ex de,hl			;85dd	eb 	.  
85de 2a 00 01			ld hl,(00100h)		;85de	2a 00 01 	* . .  
85e1 00				nop			;85e1	00 	.  
85e2 02				ld (bc),a			;85e2	02 	.  
85e3 01 00 97			ld bc,09700h		;85e3	01 00 97 	. . .  
85e6 28 41			jr z,l8629h		;85e6	28 41 	( A  
85e8			l85e8h: 
85e8 29				add hl,hl			;85e8	29 	)  
85e9 2a 08 01			ld hl,(00108h)		;85e9	2a 08 01 	* . .  
85ec 11 aa 00			ld de,000aah		;85ec	11 aa 00 	. . .  
85ef 22 e5 06			ld (006e5h),hl		;85ef	22 e5 06 	" . .  
85f2 19				add hl,de			;85f2	19 	.  
85f3 22 e7 06			ld (006e7h),hl		;85f3	22 e7 06 	" . .  
85f6 19				add hl,de			;85f6	19 	.  
85f7			l85f7h: 
85f7 ed 5b df 06		ld de,(006dfh)		;85f7	ed 5b df 06 	. [ . .  
85fb 19				add hl,de			;85fb	19 	.  
85fc f9				ld sp,hl			;85fc	f9 	.  
85fd 22 dd 06			ld (006ddh),hl		;85fd	22 dd 06 	" . .  
8600 22 ce 1c			ld (01cceh),hl		;8600	22 ce 1c 	" . .  
8603 19				add hl,de			;8603	19 	.  
8604			l8604h: 
8604 22 d4 1c			ld (01cd4h),hl		;8604	22 d4 1c 	" . .  
8607 22 05 1d			ld (01d05h),hl		;8607	22 05 1d 	" . .  
860a 22 07 1d			ld (01d07h),hl		;860a	22 07 1d 	" . .  
860d ed 5b e1 06		ld de,(006e1h)		;860d	ed 5b e1 06 	. [ . .  
8611 19				add hl,de			;8611	19 	.  
8612 22 09 1d			ld (01d09h),hl		;8612	22 09 1d 	" . .  
8615 22 13 1d			ld (01d13h),hl		;8615	22 13 1d 	" . .  
8618 22 15 1d			ld (01d15h),hl		;8618	22 15 1d 	" . .  
861b eb				ex de,hl			;861b	eb 	.  
861c 2a 06 00			ld hl,(00006h)		;861c	2a 06 00 	* . .  
861f 2b				dec hl			;861f	2b 	+  
8620 22 17 1d			ld (01d17h),hl		;8620	22 17 1d 	" . .  
8623 22 19 1d			ld (01d19h),hl		;8623	22 19 1d 	" . .  
8626 b7				or a			;8626	b7 	.  
8627 ed 52			sbc hl,de		;8627	ed 52 	. R  
8629			l8629h: 
8629 38 05			jr c,l8630h		;8629	38 05 	8 .  
862b			l862bh: 
862b 7c				ld a,h			;862b	7c 	|  
862c fe 02			cp 002h		;862c	fe 02 	. .  
862e 30 2e			jr nc,l865eh		;862e	30 2e 	0 .  
8630			l8630h: 
8630 fd 21 5e 01		ld iy,0015eh		;8630	fd 21 5e 01 	. ! ^ .  
8634 21 b2 1a			ld hl,01ab2h		;8634	21 b2 1a 	! . .  
8637 01 12 00			ld bc,00012h		;8637	01 12 00 	. . .  
863a cd ee 18			call 018eeh		;863a	cd ee 18 	. . .  
863d c3 00 00			jp 00000h		;863d	c3 00 00 	. . .  
8640 ed 7b dd 06		ld sp,(006ddh)		;8640	ed 7b dd 06 	. { . .  
8644 fd 21 5e 01		ld iy,0015eh		;8644	fd 21 5e 01 	. ! ^ .  
8648 21 af 1a			ld hl,01aafh		;8648	21 af 1a 	! . .  
864b 01 03 00			ld bc,00003h		;864b	01 03 00 	. . .  
864e cd ee 18			call 018eeh		;864e	cd ee 18 	. . .  
8651 fd cb c6 5e		bit 3,(iy-03ah)		;8651	fd cb c6 5e 	. . . ^  
8655 c4 7b 14			call nz,0147bh		;8655	c4 7b 14 	. { .  
8658 cd 7f 18			call 0187fh		;8658	cd 7f 18 	.  .  
865b c3 a1 0a			jp 00aa1h		;865b	c3 a1 0a 	. . .  
865e			l865eh: 
865e 21 a8 06			ld hl,006a8h		;865e	21 a8 06 	! . .  
8661 01 35 00			ld bc,00035h		;8661	01 35 00 	. 5 .  
8664 fd 21 5e 01		ld iy,0015eh		;8664	fd 21 5e 01 	. ! ^ .  
8668 cd ee 18			call 018eeh		;8668	cd ee 18 	. . .  
866b cd f4 08			call 008f4h		;866b	cd f4 08 	. . .  
866e 3d				dec a			;866e	3d 	=  
866f 32 dc 1c			ld (01cdch),a		;866f	32 dc 1c 	2 . .  
8672 32 dd 1c			ld (01cddh),a		;8672	32 dd 1c 	2 . .  
8675 cd c5 08			call 008c5h		;8675	cd c5 08 	. . .  
8678 fd cb c5 56		bit 2,(iy-03bh)		;8678	fd cb c5 56 	. . . V  
867c cc 40 02			call z,00240h		;867c	cc 40 02 	. @ .  
867f fd cb c5 96		res 2,(iy-03bh)		;867f	fd cb c5 96 	. . . .  
8683 cd 7b 14			call 0147bh		;8683	cd 7b 14 	. { .  
8686 fd cb c6 6e		bit 5,(iy-03ah)		;8686	fd cb c6 6e 	. . . n  
868a ca 93 0a			jp z,00a93h		;868a	ca 93 0a 	. . .  
868d 2a d2 1c			ld hl,(01cd2h)		;868d	2a d2 1c 	* . .  
8690 c3 ed 09			jp 009edh		;8690	c3 ed 09 	. . .  
8693			l8693h: 
8693 cd 7f 18			call 0187fh		;8693	cd 7f 18 	.  .  
8696 ed 7b dd 06		ld sp,(006ddh)		;8696	ed 7b dd 06 	. { . .  
869a cd f4 08			call 008f4h		;869a	cd f4 08 	. . .  
869d 2a ce 1c			ld hl,(01cceh)		;869d	2a ce 1c 	* . .  
86a0 22 d6 1c			ld (01cd6h),hl		;86a0	22 d6 1c 	" . .  
86a3 fd cb c6 56		bit 2,(iy-03ah)		;86a3	fd cb c6 56 	. . . V  
86a7 c2 26 0c			jp nz,00c26h		;86a7	c2 26 0c 	. & .  
86aa 3e 2a			ld a,02ah		;86aa	3e 2a 	> *  
86ac cd 90 18			call 01890h		;86ac	cd 90 18 	. . .  
86af cd 06 09			call 00906h		;86af	cd 06 09 	. . .  
86b2 28 24			jr z,l86d8h		;86b2	28 24 	( $  
86b4 fe 20			cp 020h		;86b4	fe 20 	.    
86b6 30 20			jr nc,l86d8h		;86b6	30 20 	0    
86b8 fe 0d			cp 00dh		;86b8	fe 0d 	. .  
86ba 28 1c			jr z,l86d8h		;86ba	28 1c 	( .  
86bc fe 09			cp 009h		;86bc	fe 09 	. .  
86be 28 18			jr z,l86d8h		;86be	28 18 	( .  
86c0 fe 1b			cp 01bh		;86c0	fe 1b 	. .  
86c2 28 14			jr z,l86d8h		;86c2	28 14 	( .  
86c4 fd cb c6 5e		bit 3,(iy-03ah)		;86c4	fd cb c6 5e 	. . . ^  
86c8 28 0e			jr z,l86d8h		;86c8	28 0e 	( .  
86ca f5				push af			;86ca	f5 	.  
86cb cd 7f 18			call 0187fh		;86cb	cd 7f 18 	.  .  
86ce cd 85 0a			call 00a85h		;86ce	cd 85 0a 	. . .  
86d1 f1				pop af			;86d1	f1 	.  
86d2 c3 34 0c			jp 00c34h		;86d2	c3 34 0c 	. 4 .  
86d5			l86d5h: 
86d5 cd 06 09			call 00906h		;86d5	cd 06 09 	. . .  
86d8			l86d8h: 
86d8 fe 7f			cp 07fh		;86d8	fe 7f 	.   
86da ca 12 08			jp z,00812h		;86da	ca 12 08 	. . .  
86dd fe 0a			cp 00ah		;86dd	fe 0a 	. .  
86df 28 f4			jr z,l86d5h		;86df	28 f4 	( .  
86e1 cd 90 18			call 01890h		;86e1	cd 90 18 	. . .  
86e4 fd 5e c0			ld e,(iy-040h)		;86e4	fd 5e c0 	. ^ .  
86e7 fd 77 c0			ld (iy-040h),a		;86e7	fd 77 c0 	. w .  
86ea fe 1b			cp 01bh		;86ea	fe 1b 	. .  
86ec 20 04			jr nz,l86f2h		;86ec	20 04 	  .  
86ee bb				cp e			;86ee	bb 	.  
86ef ca d9 09			jp z,009d9h		;86ef	ca d9 09 	. . .  
86f2			l86f2h: 
86f2 fe 12			cp 012h		;86f2	fe 12 	. .  
86f4 28 57			jr z,l874dh		;86f4	28 57 	( W  
86f6 fe 15			cp 015h		;86f6	fe 15 	. .  
86f8 28 5f			jr z,l8759h		;86f8	28 5f 	( _  
86fa fe 18			cp 018h		;86fa	fe 18 	. .  
86fc 28 95			jr z,l8693h		;86fc	28 95 	( .  
86fe 2a d6 1c			ld hl,(01cd6h)		;86fe	2a d6 1c 	* . .  
8701 fd b6 bf			or (iy-041h)		;8701	fd b6 bf 	. . .  
8704 77				ld (hl),a			;8704	77 	w  
8705 23				inc hl			;8705	23 	#  
8706 22 d6 1c			ld (01cd6h),hl		;8706	22 d6 1c 	" . .  
8709 eb				ex de,hl			;8709	eb 	.  
870a 2a d4 1c			ld hl,(01cd4h)		;870a	2a d4 1c 	* . .  
870d cd 8b 1a			call 01a8bh		;870d	cd 8b 1a 	. . .  
8710 20 c3			jr nz,l86d5h		;8710	20 c3 	  .  
8712 ed 5b ce 1c		ld de,(01cceh)		;8712	ed 5b ce 1c 	. [ . .  
8716 2a d6 1c			ld hl,(01cd6h)		;8716	2a d6 1c 	* . .  
8719 fd 77 c0			ld (iy-040h),a		;8719	fd 77 c0 	. w .  
871c cd 8b 1a			call 01a8bh		;871c	cd 8b 1a 	. . .  
871f ca 93 07			jp z,00793h		;871f	ca 93 07 	. . .  
8722 2b				dec hl			;8722	2b 	+  
8723 22 d6 1c			ld (01cd6h),hl		;8723	22 d6 1c 	" . .  
8726 7e				ld a,(hl)			;8726	7e 	~  
8727 e6 7f			and 07fh		;8727	e6 7f 	.   
8729 28 1d			jr z,l8748h		;8729	28 1d 	( .  
872b fe 1b			cp 01bh		;872b	fe 1b 	. .  
872d 28 19			jr z,l8748h		;872d	28 19 	( .  
872f fe 0d			cp 00dh		;872f	fe 0d 	. .  
8731 28 15			jr z,l8748h		;8731	28 15 	( .  
8733 fe 09			cp 009h		;8733	fe 09 	. .  
8735 28 11			jr z,l8748h		;8735	28 11 	( .  
8737 fe 20			cp 020h		;8737	fe 20 	.    
8739 30 0d			jr nc,l8748h		;8739	30 0d 	0 .  
873b cd 7b 08			call 0087bh		;873b	cd 7b 08 	. { .  
873e cd 76 08			call 00876h		;873e	cd 76 08 	. v .  
8741 20 05			jr nz,l8748h		;8741	20 05 	  .  
8743 cd 9a 08			call 0089ah		;8743	cd 9a 08 	. . .  
8746 18 8d			jr l86d5h		;8746	18 8d 	. .  
8748			l8748h: 
8748 cd 7b 08			call 0087bh		;8748	cd 7b 08 	. { .  
874b 18 88			jr l86d5h		;874b	18 88 	. .  
874d			l874dh: 
874d cd 7f 18			call 0187fh		;874d	cd 7f 18 	.  .  
8750 2a ce 1c			ld hl,(01cceh)		;8750	2a ce 1c 	* . .  
8753 cd af 08			call 008afh		;8753	cd af 08 	. . .  
8756 c3 d5 07			jp 007d5h		;8756	c3 d5 07 	. . .  
8759			l8759h: 
8759 cd 7f 18			call 0187fh		;8759	cd 7f 18 	.  .  
875c 2a d6 1c			ld hl,(01cd6h)		;875c	2a d6 1c 	* . .  
875f ed 5b ce 1c		ld de,(01cceh)		;875f	ed 5b ce 1c 	. [ . .  
8763			l8763h: 
8763 cd 8b 1a			call 01a8bh		;8763	cd 8b 1a 	. . .  
8766 ca 96 07			jp z,00796h		;8766	ca 96 07 	. . .  
8769 2b				dec hl			;8769	2b 	+  
876a 7e				ld a,(hl)			;876a	7e 	~  
876b fe 8d			cp 08dh		;876b	fe 8d 	. .  
876d 20 f4			jr nz,l8763h		;876d	20 f4 	  .  
876f 23				inc hl			;876f	23 	#  
8770 22 d6 1c			ld (01cd6h),hl		;8770	22 d6 1c 	" . .  
8773 c3 d5 07			jp 007d5h		;8773	c3 d5 07 	. . .  
8776 af				xor a			;8776	af 	.  
8777 fd 86 bc			add a,(iy-044h)		;8777	fd 86 bc 	. . .  
877a c9				ret			;877a	c9 	.  
877b cd 76 08			call 00876h		;877b	cd 76 08 	. v .  
877e 28 1a			jr z,l879ah		;877e	28 1a 	( .  
8780 21 bf f5			ld hl,0f5bfh		;8780	21 bf f5 	! . .  
8783 06 00			ld b,000h		;8783	06 00 	. .  
8785 fd 4e bc			ld c,(iy-044h)		;8785	fd 4e bc 	. N .  
8788 09				add hl,bc			;8788	09 	.  
8789			l8789h: 
8789 f7				rst 30h			;8789	f7 	.  
878a 2c				inc l			;878a	2c 	,  
878b 5f				ld e,a			;878b	5f 	_  
878c 2b				dec hl			;878c	2b 	+  
878d 3e 7f			ld a,07fh		;878d	3e 7f 	>   
878f f7				rst 30h			;878f	f7 	.  
8790 01 fd 35			ld bc,035fdh		;8790	01 fd 35 	. . 5  
8793 bc				cp h			;8793	bc 	.  
8794 7b				ld a,e			;8794	7b 	{  
8795 fe 80			cp 080h		;8795	fe 80 	. .  
8797 28 f0			jr z,l8789h		;8797	28 f0 	( .  
8799 c9				ret			;8799	c9 	.  
879a			l879ah: 
879a cd 7f 18			call 0187fh		;879a	cd 7f 18 	.  .  
879d 2a d6 1c			ld hl,(01cd6h)		;879d	2a d6 1c 	* . .  
87a0 ed 5b ce 1c		ld de,(01cceh)		;87a0	ed 5b ce 1c 	. [ . .  
87a4			l87a4h: 
87a4 cd 8b 1a			call 01a8bh		;87a4	cd 8b 1a 	. . .  
87a7 28 06			jr z,l87afh		;87a7	28 06 	( .  
87a9 2b				dec hl			;87a9	2b 	+  
87aa cb 7e			bit 7,(hl)		;87aa	cb 7e 	. ~  
87ac 28 f6			jr z,l87a4h		;87ac	28 f6 	( .  
87ae 23				inc hl			;87ae	23 	#  
87af			l87afh: 
87af eb				ex de,hl			;87af	eb 	.  
87b0 2a d6 1c			ld hl,(01cd6h)		;87b0	2a d6 1c 	* . .  
87b3 cd 8b 1a			call 01a8bh		;87b3	cd 8b 1a 	. . .  
87b6 c8				ret z			;87b6	c8 	.  
87b7 eb				ex de,hl			;87b7	eb 	.  
87b8 7e				ld a,(hl)			;87b8	7e 	~  
87b9 e6 7f			and 07fh		;87b9	e6 7f 	.   
87bb cd 90 18			call 01890h		;87bb	cd 90 18 	. . .  
87be fd 86 bf			add a,(iy-041h)		;87be	fd 86 bf 	. . .  
87c1 77				ld (hl),a			;87c1	77 	w  
87c2 23				inc hl			;87c2	23 	#  
87c3 18 ea			jr l87afh		;87c3	18 ea 	. .  
87c5 11 80 00			ld de,00080h		;87c5	11 80 00 	. . .  
87c8 1a				ld a,(de)			;87c8	1a 	.  
87c9 13				inc de			;87c9	13 	.  
87ca fe 02			cp 002h		;87ca	fe 02 	. .  
87cc d8				ret c			;87cc	d8 	.  
87cd fd cb c6 66		bit 4,(iy-03ah)		;87cd	fd cb c6 66 	. . . f  
87d1 c0				ret nz			;87d1	c0 	.  
87d2 fd cb c6 ee		set 5,(iy-03ah)		;87d2	fd cb c6 ee 	. . . .  
87d6 47				ld b,a			;87d6	47 	G  
87d7 2a ce 1c			ld hl,(01cceh)		;87d7	2a ce 1c 	* . .  
87da 22 d6 1c			ld (01cd6h),hl		;87da	22 d6 1c 	" . .  
87dd 36 45			ld (hl),045h		;87dd	36 45 	6 E  
87df 23				inc hl			;87df	23 	#  
87e0 36 42			ld (hl),042h		;87e0	36 42 	6 B  
87e2 23				inc hl			;87e2	23 	#  
87e3			l87e3h: 
87e3 1a				ld a,(de)			;87e3	1a 	.  
87e4 13				inc de			;87e4	13 	.  
87e5 fe 20			cp 020h		;87e5	fe 20 	.    
87e7 28 02			jr z,l87ebh		;87e7	28 02 	( .  
87e9 77				ld (hl),a			;87e9	77 	w  
87ea 23				inc hl			;87ea	23 	#  
87eb			l87ebh: 
87eb 10 f6			djnz l87e3h		;87eb	10 f6 	. .  
87ed 36 1b			ld (hl),01bh		;87ed	36 1b 	6 .  
87ef 23				inc hl			;87ef	23 	#  
87f0 22 d2 1c			ld (01cd2h),hl		;87f0	22 d2 1c 	" . .  
87f3 c9				ret			;87f3	c9 	.  
87f4 af				xor a			;87f4	af 	.  
87f5 fd 77 c0			ld (iy-040h),a		;87f5	fd 77 c0 	. w .  
87f8 32 e4 1c			ld (01ce4h),a		;87f8	32 e4 1c 	2 . .  
87fb 32 0f 1d			ld (01d0fh),a		;87fb	32 0f 1d 	2 . .  
87fe fd 77 bc			ld (iy-044h),a		;87fe	fd 77 bc 	. w .  
8801 fd cb c6 b6		res 6,(iy-03ah)		;8801	fd cb c6 b6 	. . . .  
8805 c9				ret			;8805	c9 	.  
8806			l8806h: 
8806 f7				rst 30h			;8806	f7 	.  
8807 1f				rra			;8807	1f 	.  
8808 b7				or a			;8808	b7 	.  
8809 28 0f			jr z,l881ah		;8809	28 0f 	( .  
880b f7				rst 30h			;880b	f7 	.  
880c 21 fe 03			ld hl,003feh		;880c	21 fe 03 	! . .  
880f cc 7d 09			call z,0097dh		;880f	cc 7d 09 	. } .  
8812 fe 06			cp 006h		;8812	fe 06 	. .  
8814 cc 45 09			call z,00945h		;8814	cc 45 09 	. E .  
8817 c2 31 1b			jp nz,01b31h		;8817	c2 31 1b 	. 1 .  
881a			l881ah: 
881a fd 35 c2			dec (iy-03eh)		;881a	fd 35 c2 	. 5 .  
881d 20 e7			jr nz,l8806h		;881d	20 e7 	  .  
881f fd 35 c3			dec (iy-03dh)		;881f	fd 35 c3 	. 5 .  
8822 20 e2			jr nz,l8806h		;8822	20 e2 	  .  
8824 fd 34 c4			inc (iy-03ch)		;8824	fd 34 c4 	. 4 .  
8827 2a 42 09			ld hl,(00942h)		;8827	2a 42 09 	* B .  
882a fd cb c4 46		bit 0,(iy-03ch)		;882a	fd cb c4 46 	. . . F  
882e 28 0d			jr z,l883dh		;882e	28 0d 	( .  
8830 fd 7e c7			ld a,(iy-039h)		;8830	fd 7e c7 	. ~ .  
8833			l8833h: 
8833 f7				rst 30h			;8833	f7 	.  
8834 2b				dec hl			;8834	2b 	+  
8835 fd 7e b0			ld a,(iy-050h)		;8835	fd 7e b0 	. ~ .  
8838 fd 77 c3			ld (iy-03dh),a		;8838	fd 77 c3 	. w .  
883b 18 c9			jr l8806h		;883b	18 c9 	. .  
883d			l883dh: 
883d fd 7e c1			ld a,(iy-03fh)		;883d	fd 7e c1 	. ~ .  
8840 18 f1			jr l8833h		;8840	18 f1 	. .  
8842 40				ld b,b			;8842	40 	@  
8843 f0				ret p			;8843	f0 	.  
8844 00				nop			;8844	00 	.  
8845 21 ad 09			ld hl,009adh		;8845	21 ad 09 	! . .  
8848 01 19 00			ld bc,00019h		;8848	01 19 00 	. . .  
884b cd ee 18			call 018eeh		;884b	cd ee 18 	. . .  
884e cd 64 1b			call 01b64h		;884e	cd 64 1b 	. d .  
8851 20 12			jr nz,l8865h		;8851	20 12 	  .  
8853 cd 13 e0			call 0e013h		;8853	cd 13 e0 	. . .  
8856 fd cb c6 5e		bit 3,(iy-03ah)		;8856	fd cb c6 5e 	. . . ^  
885a 28 10			jr z,l886ch		;885a	28 10 	( .  
885c cd 7b 14			call 0147bh		;885c	cd 7b 14 	. { .  
885f cd 7f 18			call 0187fh		;885f	cd 7f 18 	.  .  
8862 c3 a1 0a			jp 00aa1h		;8862	c3 a1 0a 	. . .  
8865			l8865h: 
8865 fd cb c6 56		bit 2,(iy-03ah)		;8865	fd cb c6 56 	. . . V  
8869 c2 a1 0a			jp nz,00aa1h		;8869	c2 a1 0a 	. . .  
886c			l886ch: 
886c 2a d6 1c			ld hl,(01cd6h)		;886c	2a d6 1c 	* . .  
886f ed 5b ce 1c		ld de,(01cceh)		;886f	ed 5b ce 1c 	. [ . .  
8873 cd 8b 1a			call 01a8bh		;8873	cd 8b 1a 	. . .  
8876 ca 93 07			jp z,00793h		;8876	ca 93 07 	. . .  
8879 3e 12			ld a,012h		;8879	3e 12 	> .  
887b b7				or a			;887b	b7 	.  
887c c9				ret			;887c	c9 	.  
887d 21 90 09			ld hl,00990h		;887d	21 90 09 	! . .  
8880 01 1d 00			ld bc,0001dh		;8880	01 1d 00 	. . .  
8883 cd ee 18			call 018eeh		;8883	cd ee 18 	. . .  
8886 cd 64 1b			call 01b64h		;8886	cd 64 1b 	. d .  
8889 20 da			jr nz,l8865h		;8889	20 da 	  .  
888b f7				rst 30h			;888b	f7 	.  
888c 0e c3			ld c,0c3h		;888c	0e c3 	. .  
888e 00				nop			;888e	00 	.  
888f 00				nop			;888f	00 	.  
8890 0d				dec c			;8890	0d 	.  
8891 43				ld b,e			;8891	43 	C  
8892 54				ld d,h			;8892	54 	T  
8893 52				ld d,d			;8893	52 	R  
8894 4c				ld c,h			;8894	4c 	L  
8895 20 43			jr nz,$+69		;8895	20 43 	  C  
8897 20 2d			jr nz,l88c6h		;8897	20 2d 	  -  
8899 20 61			jr nz,$+99		;8899	20 61 	  a  
889b 72				ld (hl),d			;889b	72 	r  
889c 65				ld h,l			;889c	65 	e  
889d 20 79			jr nz,$+123		;889d	20 79 	  y  
889f 6f				ld l,a			;889f	6f 	o  
88a0 75				ld (hl),l			;88a0	75 	u  
88a1 20 73			jr nz,$+117		;88a1	20 73 	  s  
88a3 75				ld (hl),l			;88a3	75 	u  
88a4 72				ld (hl),d			;88a4	72 	r  
88a5 65				ld h,l			;88a5	65 	e  
88a6 20 28			jr nz,l88d0h		;88a6	20 28 	  (  
88a8 59				ld e,c			;88a8	59 	Y  
88a9 2f				cpl			;88a9	2f 	/  
88aa 4e				ld c,(hl)			;88aa	4e 	N  
88ab 29				add hl,hl			;88ab	29 	)  
88ac 3f				ccf			;88ac	3f 	?  
88ad 0d				dec c			;88ad	0d 	.  
88ae 46				ld b,(hl)			;88ae	46 	F  
88af 72				ld (hl),d			;88af	72 	r  
88b0 6f				ld l,a			;88b0	6f 	o  
88b1 6e				ld l,(hl)			;88b1	6e 	n  
88b2 74				ld (hl),h			;88b2	74 	t  
88b3 20 50			jr nz,$+82		;88b3	20 50 	  P  
88b5 61				ld h,c			;88b5	61 	a  
88b6 6e				ld l,(hl)			;88b6	6e 	n  
88b7 65				ld h,l			;88b7	65 	e  
88b8 6c				ld l,h			;88b8	6c 	l  
88b9 20 63			jr nz,l891eh		;88b9	20 63 	  c  
88bb 68				ld l,b			;88bb	68 	h  
88bc 65				ld h,l			;88bc	65 	e  
88bd 63				ld h,e			;88bd	63 	c  
88be 6b				ld l,e			;88be	6b 	k  
88bf 20 28			jr nz,$+42		;88bf	20 28 	  (  
88c1 59				ld e,c			;88c1	59 	Y  
88c2 2f				cpl			;88c2	2f 	/  
88c3 4e				ld c,(hl)			;88c3	4e 	N  
88c4 29				add hl,hl			;88c4	29 	)  
88c5 3f				ccf			;88c5	3f 	?  
88c6			l88c6h: 
88c6 2a ce 1c			ld hl,(01cceh)		;88c6	2a ce 1c 	* . .  
88c9			l88c9h: 
88c9 eb				ex de,hl			;88c9	eb 	.  
88ca 2a d6 1c			ld hl,(01cd6h)		;88ca	2a d6 1c 	* . .  
88cd af				xor a			;88cd	af 	.  
88ce ed 52			sbc hl,de		;88ce	ed 52 	. R  
88d0			l88d0h: 
88d0 c8				ret z			;88d0	c8 	.  
88d1 eb				ex de,hl			;88d1	eb 	.  
88d2 7e				ld a,(hl)			;88d2	7e 	~  
88d3 e6 7f			and 07fh		;88d3	e6 7f 	.   
88d5 77				ld (hl),a			;88d5	77 	w  
88d6 23				inc hl			;88d6	23 	#  
88d7 18 f0			jr l88c9h		;88d7	18 f0 	. .  
88d9 cd 7f 18			call 0187fh		;88d9	cd 7f 18 	.  .  
88dc cd c6 09			call 009c6h		;88dc	cd c6 09 	. . .  
88df 2a 42 09			ld hl,(00942h)		;88df	2a 42 09 	* B .  
88e2 fd 7e c1			ld a,(iy-03fh)		;88e2	fd 7e c1 	. ~ .  
88e5 f7				rst 30h			;88e5	f7 	.  
88e6 2b				dec hl			;88e6	2b 	+  
88e7 2a d6 1c			ld hl,(01cd6h)		;88e7	2a d6 1c 	* . .  
88ea 22 d2 1c			ld (01cd2h),hl		;88ea	22 d2 1c 	" . .  
88ed eb				ex de,hl			;88ed	eb 	.  
88ee 2a ce 1c			ld hl,(01cceh)		;88ee	2a ce 1c 	* . .  
88f1 22 d6 1c			ld (01cd6h),hl		;88f1	22 d6 1c 	" . .  
88f4 eb				ex de,hl			;88f4	eb 	.  
88f5 cd 8b 1a			call 01a8bh		;88f5	cd 8b 1a 	. . .  
88f8 79				ld a,c			;88f8	79 	y  
88f9 3d				dec a			;88f9	3d 	=  
88fa b0				or b			;88fa	b0 	.  
88fb 20 0c			jr nz,l8909h		;88fb	20 0c 	  .  
88fd fd cb c6 5e		bit 3,(iy-03ah)		;88fd	fd cb c6 5e 	. . . ^  
8901 28 06			jr z,l8909h		;8901	28 06 	( .  
8903 cd 85 0a			call 00a85h		;8903	cd 85 0a 	. . .  
8906 c3 96 07			jp 00796h		;8906	c3 96 07 	. . .  
8909			l8909h: 
8909 2a d6 1c			ld hl,(01cd6h)		;8909	2a d6 1c 	* . .  
890c 22 d0 1c			ld (01cd0h),hl		;890c	22 d0 1c 	" . .  
890f 21 db 1c			ld hl,01cdbh		;890f	21 db 1c 	! . .  
8912 36 00			ld (hl),000h		;8912	36 00 	6 .  
8914 cd 85 0c			call 00c85h		;8914	cd 85 0c 	. . .  
8917 ca 93 0a			jp z,00a93h		;8917	ca 93 0a 	. . .  
891a fe 3d			cp 03dh		;891a	fe 3d 	. =  
891c 28 4a			jr z,l8968h		;891c	28 4a 	( J  
891e			l891eh: 
891e fe 2b			cp 02bh		;891e	fe 2b 	. +  
8920 28 05			jr z,l8927h		;8920	28 05 	( .  
8922 fe 2d			cp 02dh		;8922	fe 2d 	. -  
8924 20 07			jr nz,l892dh		;8924	20 07 	  .  
8926 77				ld (hl),a			;8926	77 	w  
8927			l8927h: 
8927 cd 85 0c			call 00c85h		;8927	cd 85 0c 	. . .  
892a ca 43 0d			jp z,00d43h		;892a	ca 43 0d 	. C .  
892d			l892dh: 
892d fe 2a			cp 02ah		;892d	fe 2a 	. *  
892f 28 4c			jr z,l897dh		;892f	28 4c 	( L  
8931 21 00 80			ld hl,l8000h		;8931	21 00 80 	! . .  
8934			l8934h: 
8934 fe 30			cp 030h		;8934	fe 30 	. 0  
8936 38 18			jr c,l8950h		;8936	38 18 	8 .  
8938 fe 3a			cp 03ah		;8938	fe 3a 	. :  
893a 30 14			jr nc,l8950h		;893a	30 14 	0 .  
893c 5d				ld e,l			;893c	5d 	]  
893d 54				ld d,h			;893d	54 	T  
893e 29				add hl,hl			;893e	29 	)  
893f 29				add hl,hl			;893f	29 	)  
8940 19				add hl,de			;8940	19 	.  
8941 29				add hl,hl			;8941	29 	)  
8942 d6 30			sub 030h		;8942	d6 30 	. 0  
8944 5f				ld e,a			;8944	5f 	_  
8945 16 00			ld d,000h		;8945	16 00 	. .  
8947 19				add hl,de			;8947	19 	.  
8948 cd 85 0c			call 00c85h		;8948	cd 85 0c 	. . .  
894b ca 43 0d			jp z,00d43h		;894b	ca 43 0d 	. C .  
894e 18 e4			jr l8934h		;894e	18 e4 	. .  
8950			l8950h: 
8950 f5				push af			;8950	f5 	.  
8951 7c				ld a,h			;8951	7c 	|  
8952 87				add a,a			;8952	87 	.  
8953 30 06			jr nc,l895bh		;8953	30 06 	0 .  
8955 0f				rrca			;8955	0f 	.  
8956 67				ld h,a			;8956	67 	g  
8957 b5				or l			;8957	b5 	.  
8958 20 01			jr nz,l895bh		;8958	20 01 	  .  
895a 2c				inc l			;895a	2c 	,  
895b			l895bh: 
895b 22 d9 1c			ld (01cd9h),hl		;895b	22 d9 1c 	" . .  
895e f1				pop af			;895e	f1 	.  
895f			l895fh: 
895f 32 d8 1c			ld (01cd8h),a		;895f	32 d8 1c 	2 . .  
8962 cd b6 0c			call 00cb6h		;8962	cd b6 0c 	. . .  
8965 c3 09 0a			jp 00a09h		;8965	c3 09 0a 	. . .  
8968			l8968h: 
8968 77				ld (hl),a			;8968	77 	w  
8969 2a e3 06			ld hl,(006e3h)		;8969	2a e3 06 	* . .  
896c 22 d9 1c			ld (01cd9h),hl		;896c	22 d9 1c 	" . .  
896f 21 00 00			ld hl,00000h		;896f	21 00 00 	! . .  
8972 22 e3 06			ld (006e3h),hl		;8972	22 e3 06 	" . .  
8975			l8975h: 
8975 cd 85 0c			call 00c85h		;8975	cd 85 0c 	. . .  
8978 ca 43 0d			jp z,00d43h		;8978	ca 43 0d 	. C .  
897b 18 e2			jr l895fh		;897b	18 e2 	. .  
897d			l897dh: 
897d 21 ff 7f			ld hl,07fffh		;897d	21 ff 7f 	! .   
8980 22 d9 1c			ld (01cd9h),hl		;8980	22 d9 1c 	" . .  
8983 18 f0			jr l8975h		;8983	18 f0 	. .  
8985 21 c4 1a			ld hl,01ac4h		;8985	21 c4 1a 	! . .  
8988 01 02 00			ld bc,00002h		;8988	01 02 00 	. . .  
898b cd ee 18			call 018eeh		;898b	cd ee 18 	. . .  
898e fd cb c6 d6		set 2,(iy-03ah)		;898e	fd cb c6 d6 	. . . .  
8992 c9				ret			;8992	c9 	.  
8993 3a 0f 1d			ld a,(01d0fh)		;8993	3a 0f 1d 	: . .  
8996 b7				or a			;8996	b7 	.  
8997 c2 fb 0b			jp nz,00bfbh		;8997	c2 fb 0b 	. . .  
899a 3a e4 1c			ld a,(01ce4h)		;899a	3a e4 1c 	: . .  
899d b7				or a			;899d	b7 	.  
899e c2 4b 0d			jp nz,00d4bh		;899e	c2 4b 0d 	. K .  
89a1 fd cb c6 5e		bit 3,(iy-03ah)		;89a1	fd cb c6 5e 	. . . ^  
89a5 ca 96 07			jp z,00796h		;89a5	ca 96 07 	. . .  
89a8 21 40 f0			ld hl,0f040h		;89a8	21 40 f0 	! @ .  
89ab 22 df 1c			ld (01cdfh),hl		;89ab	22 df 1c 	" . .  
89ae af				xor a			;89ae	af 	.  
89af fd 77 bc			ld (iy-044h),a		;89af	fd 77 bc 	. w .  
89b2 fd 77 c3			ld (iy-03dh),a		;89b2	fd 77 c3 	. w .  
89b5 fd cb b7 4e		bit 1,(iy-049h)		;89b5	fd cb b7 4e 	. . . N  
89b9 c4 a1 0d			call nz,00da1h		;89b9	c4 a1 0d 	. . .  
89bc 2a 15 1d			ld hl,(01d15h)		;89bc	2a 15 1d 	* . .  
89bf ed 5b 13 1d		ld de,(01d13h)		;89bf	ed 5b 13 1d 	. [ . .  
89c3 cd 8b 1a			call 01a8bh		;89c3	cd 8b 1a 	. . .  
89c6 ca 53 0b			jp z,00b53h		;89c6	ca 53 0b 	. S .  
89c9 fd cb b7 46		bit 0,(iy-049h)		;89c9	fd cb b7 46 	. . . F  
89cd 28 78			jr z,l8a47h		;89cd	28 78 	( x  
89cf fd 36 c2 00		ld (iy-03eh),000h		;89cf	fd 36 c2 00 	. 6 . .  
89d3 11 00 00			ld de,00000h		;89d3	11 00 00 	. . .  
89d6 cd 31 1a			call 01a31h		;89d6	cd 31 1a 	. 1 .  
89d9 cd 8b 1a			call 01a8bh		;89d9	cd 8b 1a 	. . .  
89dc 20 10			jr nz,l89eeh		;89dc	20 10 	  .  
89de fd 34 c2			inc (iy-03eh)		;89de	fd 34 c2 	. 4 .  
89e1 18 3c			jr l8a1fh		;89e1	18 3c 	. <  
89e3			l89e3h: 
89e3 11 01 00			ld de,00001h		;89e3	11 01 00 	. . .  
89e6 cd 31 1a			call 01a31h		;89e6	cd 31 1a 	. 1 .  
89e9 cd 8b 1a			call 01a8bh		;89e9	cd 8b 1a 	. . .  
89ec 28 3a			jr z,l8a28h		;89ec	28 3a 	( :  
89ee			l89eeh: 
89ee d5				push de			;89ee	d5 	.  
89ef 26 00			ld h,000h		;89ef	26 00 	& .  
89f1			l89f1h: 
89f1 1a				ld a,(de)			;89f1	1a 	.  
89f2 13				inc de			;89f2	13 	.  
89f3 24				inc h			;89f3	24 	$  
89f4 fe 0d			cp 00dh		;89f4	fe 0d 	. .  
89f6 28 1c			jr z,l8a14h		;89f6	28 1c 	( .  
89f8 fe 09			cp 009h		;89f8	fe 09 	. .  
89fa 20 09			jr nz,l8a05h		;89fa	20 09 	  .  
89fc			l89fch: 
89fc 7c				ld a,h			;89fc	7c 	|  
89fd fd a6 b6			and (iy-04ah)		;89fd	fd a6 b6 	. . .  
8a00 28 03			jr z,l8a05h		;8a00	28 03 	( .  
8a02 24				inc h			;8a02	24 	$  
8a03 18 f7			jr l89fch		;8a03	18 f7 	. .  
8a05			l8a05h: 
8a05 7c				ld a,h			;8a05	7c 	|  
8a06 fe 28			cp 028h		;8a06	fe 28 	. (  
8a08 38 05			jr c,l8a0fh		;8a08	38 05 	8 .  
8a0a fd 34 c2			inc (iy-03eh)		;8a0a	fd 34 c2 	. 4 .  
8a0d 26 01			ld h,001h		;8a0d	26 01 	& .  
8a0f			l8a0fh: 
8a0f 0b				dec bc			;8a0f	0b 	.  
8a10 78				ld a,b			;8a10	78 	x  
8a11 b1				or c			;8a11	b1 	.  
8a12 20 dd			jr nz,l89f1h		;8a12	20 dd 	  .  
8a14			l8a14h: 
8a14 fd 34 c2			inc (iy-03eh)		;8a14	fd 34 c2 	. 4 .  
8a17 fd 7e c2			ld a,(iy-03eh)		;8a17	fd 7e c2 	. ~ .  
8a1a fe 07			cp 007h		;8a1a	fe 07 	. .  
8a1c d1				pop de			;8a1c	d1 	.  
8a1d 30 09			jr nc,l8a28h		;8a1d	30 09 	0 .  
8a1f			l8a1fh: 
8a1f 2a 13 1d			ld hl,(01d13h)		;8a1f	2a 13 1d 	* . .  
8a22 eb				ex de,hl			;8a22	eb 	.  
8a23 cd 8b 1a			call 01a8bh		;8a23	cd 8b 1a 	. . .  
8a26 20 bb			jr nz,l89e3h		;8a26	20 bb 	  .  
8a28			l8a28h: 
8a28 fd 7e c2			ld a,(iy-03eh)		;8a28	fd 7e c2 	. ~ .  
8a2b fe 0f			cp 00fh		;8a2b	fe 0f 	. .  
8a2d 38 13			jr c,l8a42h		;8a2d	38 13 	8 .  
8a2f fd cb b7 86		res 0,(iy-049h)		;8a2f	fd cb b7 86 	. . . .  
8a33 21 ec 0b			ld hl,00bech		;8a33	21 ec 0b 	! . .  
8a36 01 0f 00			ld bc,0000fh		;8a36	01 0f 00 	. . .  
8a39 cd ee 18			call 018eeh		;8a39	cd ee 18 	. . .  
8a3c cd 7f 18			call 0187fh		;8a3c	cd 7f 18 	.  .  
8a3f c3 a1 0a			jp 00aa1h		;8a3f	c3 a1 0a 	. . .  
8a42			l8a42h: 
8a42 2a 15 1d			ld hl,(01d15h)		;8a42	2a 15 1d 	* . .  
8a45 18 06			jr l8a4dh		;8a45	18 06 	. .  
8a47			l8a47h: 
8a47 11 07 00			ld de,00007h		;8a47	11 07 00 	. . .  
8a4a cd 31 1a			call 01a31h		;8a4a	cd 31 1a 	. 1 .  
8a4d			l8a4dh: 
8a4d cd 8b 1a			call 01a8bh		;8a4d	cd 8b 1a 	. . .  
8a50 cd 11 19			call 01911h		;8a50	cd 11 19 	. . .  
8a53 af				xor a			;8a53	af 	.  
8a54 47				ld b,a			;8a54	47 	G  
8a55 79				ld a,c			;8a55	79 	y  
8a56 fd 77 be			ld (iy-042h),a		;8a56	fd 77 be 	. w .  
8a59 fd 96 b8			sub (iy-048h)		;8a59	fd 96 b8 	. . .  
8a5c fe 28			cp 028h		;8a5c	fe 28 	. (  
8a5e 2a dd 06			ld hl,(006ddh)		;8a5e	2a dd 06 	* . .  
8a61 38 19			jr c,l8a7ch		;8a61	38 19 	8 .  
8a63 11 08 00			ld de,00008h		;8a63	11 08 00 	. . .  
8a66			l8a66h: 
8a66 19				add hl,de			;8a66	19 	.  
8a67 93				sub e			;8a67	93 	.  
8a68 fe 28			cp 028h		;8a68	fe 28 	. (  
8a6a 30 fa			jr nc,l8a66h		;8a6a	30 fa 	0 .  
8a6c ed 5b dd 06		ld de,(006ddh)		;8a6c	ed 5b dd 06 	. [ . .  
8a70 4f				ld c,a			;8a70	4f 	O  
8a71 fd 77 bc			ld (iy-044h),a		;8a71	fd 77 bc 	. w .  
8a74 ed b0			ldir		;8a74	ed b0 	. .  
8a76 2a dd 06			ld hl,(006ddh)		;8a76	2a dd 06 	* . .  
8a79 4f				ld c,a			;8a79	4f 	O  
8a7a 36 0d			ld (hl),00dh		;8a7a	36 0d 	6 .  
8a7c			l8a7ch: 
8a7c fd 36 c3 00		ld (iy-03dh),000h		;8a7c	fd 36 c3 00 	. 6 . .  
8a80 09				add hl,bc			;8a80	09 	.  
8a81 22 e2 1c			ld (01ce2h),hl		;8a81	22 e2 1c 	" . .  
8a84 fd 7e b0			ld a,(iy-050h)		;8a84	fd 7e b0 	. ~ .  
8a87 b7				or a			;8a87	b7 	.  
8a88 20 07			jr nz,l8a91h		;8a88	20 07 	  .  
8a8a fd 34 bc			inc (iy-044h)		;8a8a	fd 34 bc 	. 4 .  
8a8d fd 7e b1			ld a,(iy-04fh)		;8a8d	fd 7e b1 	. ~ .  
8a90 77				ld (hl),a			;8a90	77 	w  
8a91			l8a91h: 
8a91 2a df 1c			ld hl,(01cdfh)		;8a91	2a df 1c 	* . .  
8a94 79				ld a,c			;8a94	79 	y  
8a95 fd 96 b8			sub (iy-048h)		;8a95	fd 96 b8 	. . .  
8a98 4f				ld c,a			;8a98	4f 	O  
8a99 09				add hl,bc			;8a99	09 	.  
8a9a 22 42 09			ld (00942h),hl		;8a9a	22 42 09 	" B .  
8a9d 2a 19 1d			ld hl,(01d19h)		;8a9d	2a 19 1d 	* . .  
8aa0 ed 5b 17 1d		ld de,(01d17h)		;8aa0	ed 5b 17 1d 	. [ . .  
8aa4 cd 8b 1a			call 01a8bh		;8aa4	cd 8b 1a 	. . .  
8aa7 28 13			jr z,l8abch		;8aa7	28 13 	( .  
8aa9 1a				ld a,(de)			;8aa9	1a 	.  
8aaa fe 0d			cp 00dh		;8aaa	fe 0d 	. .  
8aac 20 09			jr nz,l8ab7h		;8aac	20 09 	  .  
8aae e5				push hl			;8aae	e5 	.  
8aaf 2a e2 1c			ld hl,(01ce2h)		;8aaf	2a e2 1c 	* . .  
8ab2 fd 7e b2			ld a,(iy-04eh)		;8ab2	fd 7e b2 	. ~ .  
8ab5 77				ld (hl),a			;8ab5	77 	w  
8ab6 e1				pop hl			;8ab6	e1 	.  
8ab7			l8ab7h: 
8ab7 cd 11 19			call 01911h		;8ab7	cd 11 19 	. . .  
8aba 20 08			jr nz,l8ac4h		;8aba	20 08 	  .  
8abc			l8abch: 
8abc 11 eb 0b			ld de,00bebh		;8abc	11 eb 0b 	. . .  
8abf 01 01 00			ld bc,00001h		;8abf	01 01 00 	. . .  
8ac2 18 f3			jr l8ab7h		;8ac2	18 f3 	. .  
8ac4			l8ac4h: 
8ac4 2a 42 09			ld hl,(00942h)		;8ac4	2a 42 09 	* B .  
8ac7 f7				rst 30h			;8ac7	f7 	.  
8ac8 2c				inc l			;8ac8	2c 	,  
8ac9 fd 77 c1			ld (iy-03fh),a		;8ac9	fd 77 c1 	. w .  
8acc fd be b2			cp (iy-04eh)		;8acc	fd be b2 	. . .  
8acf 28 0c			jr z,l8addh		;8acf	28 0c 	( .  
8ad1 fe 80			cp 080h		;8ad1	fe 80 	. .  
8ad3 20 05			jr nz,l8adah		;8ad3	20 05 	  .  
8ad5 fd 7e b2			ld a,(iy-04eh)		;8ad5	fd 7e b2 	. ~ .  
8ad8 18 03			jr l8addh		;8ad8	18 03 	. .  
8ada			l8adah: 
8ada fd 7e b1			ld a,(iy-04fh)		;8ada	fd 7e b1 	. ~ .  
8add			l8addh: 
8add fd 77 c7			ld (iy-039h),a		;8add	fd 77 c7 	. w .  
8ae0 fd 36 c3 01		ld (iy-03dh),001h		;8ae0	fd 36 c3 01 	. 6 . .  
8ae4 af				xor a			;8ae4	af 	.  
8ae5 fd 77 c4			ld (iy-03ch),a		;8ae5	fd 77 c4 	. w .  
8ae8 c3 96 07			jp 00796h		;8ae8	c3 96 07 	. . .  
8aeb 0d				dec c			;8aeb	0d 	.  
8aec 3f				ccf			;8aec	3f 	?  
8aed 44				ld b,h			;8aed	44 	D  
8aee 69				ld l,c			;8aee	69 	i  
8aef 73				ld (hl),e			;8aef	73 	s  
8af0 70				ld (hl),b			;8af0	70 	p  
8af1 6c				ld l,h			;8af1	6c 	l  
8af2 61				ld h,c			;8af2	61 	a  
8af3 79				ld a,c			;8af3	79 	y  
8af4 20 65			jr nz,$+103		;8af4	20 65 	  e  
8af6 72				ld (hl),d			;8af6	72 	r  
8af7 72				ld (hl),d			;8af7	72 	r  
8af8 6f				ld l,a			;8af8	6f 	o  
8af9 72				ld (hl),d			;8af9	72 	r  
8afa 3f				ccf			;8afa	3f 	?  
8afb 3a e4 1c			ld a,(01ce4h)		;8afb	3a e4 1c 	: . .  
8afe 4f				ld c,a			;8afe	4f 	O  
8aff 3a 10 1d			ld a,(01d10h)		;8aff	3a 10 1d 	: . .  
8b02 b9				cp c			;8b02	b9 	.  
8b03 c2 4b 0d			jp nz,00d4bh		;8b03	c2 4b 0d 	. K .  
8b06 2a 11 1d			ld hl,(01d11h)		;8b06	2a 11 1d 	* . .  
8b09 2b				dec hl			;8b09	2b 	+  
8b0a 22 11 1d			ld (01d11h),hl		;8b0a	22 11 1d 	" . .  
8b0d 7c				ld a,h			;8b0d	7c 	|  
8b0e b5				or l			;8b0e	b5 	.  
8b0f 2a 05 1d			ld hl,(01d05h)		;8b0f	2a 05 1d 	* . .  
8b12 20 0c			jr nz,l8b20h		;8b12	20 0c 	  .  
8b14 32 0f 1d			ld (01d0fh),a		;8b14	32 0f 1d 	2 . .  
8b17 2a 0d 1d			ld hl,(01d0dh)		;8b17	2a 0d 1d 	* . .  
8b1a 22 d2 1c			ld (01cd2h),hl		;8b1a	22 d2 1c 	" . .  
8b1d 2a 0b 1d			ld hl,(01d0bh)		;8b1d	2a 0b 1d 	* . .  
8b20			l8b20h: 
8b20 22 d6 1c			ld (01cd6h),hl		;8b20	22 d6 1c 	" . .  
8b23 c3 09 0a			jp 00a09h		;8b23	c3 09 0a 	. . .  
8b26 cd 06 09			call 00906h		;8b26	cd 06 09 	. . .  
8b29 fe 1b			cp 01bh		;8b29	fe 1b 	. .  
8b2b 20 07			jr nz,l8b34h		;8b2b	20 07 	  .  
8b2d fd cb c6 96		res 2,(iy-03ah)		;8b2d	fd cb c6 96 	. . . .  
8b31 c3 96 07			jp 00796h		;8b31	c3 96 07 	. . .  
8b34			l8b34h: 
8b34 47				ld b,a			;8b34	47 	G  
8b35 fe 20			cp 020h		;8b35	fe 20 	.    
8b37 20 0b			jr nz,l8b44h		;8b37	20 0b 	  .  
8b39 fd 7e be			ld a,(iy-042h)		;8b39	fd 7e be 	. ~ .  
8b3c fd be bd			cp (iy-043h)		;8b3c	fd be bd 	. . .  
8b3f 3e 0d			ld a,00dh		;8b3f	3e 0d 	> .  
8b41 30 f1			jr nc,l8b34h		;8b41	30 f1 	0 .  
8b43 78				ld a,b			;8b43	78 	x  
8b44			l8b44h: 
8b44 32 d4 01			ld (001d4h),a		;8b44	32 d4 01 	2 . .  
8b47 fe 19			cp 019h		;8b47	fe 19 	. .  
8b49 20 07			jr nz,l8b52h		;8b49	20 07 	  .  
8b4b cd 06 09			call 00906h		;8b4b	cd 06 09 	. . .  
8b4e 32 d8 01			ld (001d8h),a		;8b4e	32 d8 01 	2 . .  
8b51 78				ld a,b			;8b51	78 	x  
8b52			l8b52h: 
8b52 fe 1e			cp 01eh		;8b52	fe 1e 	. .  
8b54 20 07			jr nz,l8b5dh		;8b54	20 07 	  .  
8b56 cd 06 09			call 00906h		;8b56	cd 06 09 	. . .  
8b59 32 dc 01			ld (001dch),a		;8b59	32 dc 01 	2 . .  
8b5c 78				ld a,b			;8b5c	78 	x  
8b5d			l8b5dh: 
8b5d 21 76 01			ld hl,00176h		;8b5d	21 76 01 	! v .  
8b60			l8b60h: 
8b60 7e				ld a,(hl)			;8b60	7e 	~  
8b61 23				inc hl			;8b61	23 	#  
8b62 b7				or a			;8b62	b7 	.  
8b63 28 07			jr z,l8b6ch		;8b63	28 07 	( .  
8b65 b8				cp b			;8b65	b8 	.  
8b66 28 04			jr z,l8b6ch		;8b66	28 04 	( .  
8b68 23				inc hl			;8b68	23 	#  
8b69 23				inc hl			;8b69	23 	#  
8b6a 18 f4			jr l8b60h		;8b6a	18 f4 	. .  
8b6c			l8b6ch: 
8b6c 5e				ld e,(hl)			;8b6c	5e 	^  
8b6d 23				inc hl			;8b6d	23 	#  
8b6e 56				ld d,(hl)			;8b6e	56 	V  
8b6f 2a ce 1c			ld hl,(01cceh)		;8b6f	2a ce 1c 	* . .  
8b72 22 d6 1c			ld (01cd6h),hl		;8b72	22 d6 1c 	" . .  
8b75			l8b75h: 
8b75 1a				ld a,(de)			;8b75	1a 	.  
8b76 fe ff			cp 0ffh		;8b76	fe ff 	. .  
8b78 28 05			jr z,l8b7fh		;8b78	28 05 	( .  
8b7a 77				ld (hl),a			;8b7a	77 	w  
8b7b 23				inc hl			;8b7b	23 	#  
8b7c 13				inc de			;8b7c	13 	.  
8b7d 18 f6			jr l8b75h		;8b7d	18 f6 	. .  
8b7f			l8b7fh: 
8b7f 36 1b			ld (hl),01bh		;8b7f	36 1b 	6 .  
8b81 23				inc hl			;8b81	23 	#  
8b82 c3 ea 09			jp 009eah		;8b82	c3 ea 09 	. . .  
8b85			l8b85h: 
8b85 e5				push hl			;8b85	e5 	.  
8b86 2a d6 1c			ld hl,(01cd6h)		;8b86	2a d6 1c 	* . .  
8b89 eb				ex de,hl			;8b89	eb 	.  
8b8a 2a d2 1c			ld hl,(01cd2h)		;8b8a	2a d2 1c 	* . .  
8b8d cd 8b 1a			call 01a8bh		;8b8d	cd 8b 1a 	. . .  
8b90 eb				ex de,hl			;8b90	eb 	.  
8b91 7e				ld a,(hl)			;8b91	7e 	~  
8b92 23				inc hl			;8b92	23 	#  
8b93 22 d6 1c			ld (01cd6h),hl		;8b93	22 d6 1c 	" . .  
8b96 e1				pop hl			;8b96	e1 	.  
8b97 c8				ret z			;8b97	c8 	.  
8b98 cd 50 1b			call 01b50h		;8b98	cd 50 1b 	. P .  
8b9b b7				or a			;8b9b	b7 	.  
8b9c 28 e7			jr z,l8b85h		;8b9c	28 e7 	( .  
8b9e fe 0d			cp 00dh		;8b9e	fe 0d 	. .  
8ba0 28 e3			jr z,l8b85h		;8ba0	28 e3 	( .  
8ba2 fe 1b			cp 01bh		;8ba2	fe 1b 	. .  
8ba4 28 df			jr z,l8b85h		;8ba4	28 df 	( .  
8ba6 fe 20			cp 020h		;8ba6	fe 20 	.    
8ba8 28 db			jr z,l8b85h		;8ba8	28 db 	( .  
8baa fe 61			cp 061h		;8baa	fe 61 	. a  
8bac 38 06			jr c,l8bb4h		;8bac	38 06 	8 .  
8bae fe 7b			cp 07bh		;8bae	fe 7b 	. {  
8bb0 30 02			jr nc,l8bb4h		;8bb0	30 02 	0 .  
8bb2 d6 20			sub 020h		;8bb2	d6 20 	.    
8bb4			l8bb4h: 
8bb4 b7				or a			;8bb4	b7 	.  
8bb5 c9				ret			;8bb5	c9 	.  
8bb6 fe 09			cp 009h		;8bb6	fe 09 	. .  
8bb8 ca dc 13			jp z,013dch		;8bb8	ca dc 13 	. . .  
8bbb fe 3c			cp 03ch		;8bbb	fe 3c 	. <  
8bbd ca e5 0d			jp z,00de5h		;8bbd	ca e5 0d 	. . .  
8bc0 fe 3e			cp 03eh		;8bc0	fe 3e 	. >  
8bc2 ca 10 0e			jp z,00e10h		;8bc2	ca 10 0e 	. . .  
8bc5 fe 42			cp 042h		;8bc5	fe 42 	. B  
8bc7 ca 24 14			jp z,01424h		;8bc7	ca 24 14 	. $ .  
8bca fe 43			cp 043h		;8bca	fe 43 	. C  
8bcc ca 39 0e			jp z,00e39h		;8bcc	ca 39 0e 	. 9 .  
8bcf fe 44			cp 044h		;8bcf	fe 44 	. D  
8bd1 ca 39 0e			jp z,00e39h		;8bd1	ca 39 0e 	. 9 .  
8bd4 fe 45			cp 045h		;8bd4	fe 45 	. E  
8bd6 ca 39 14			jp z,01439h		;8bd6	ca 39 14 	. 9 .  
8bd9 fe 46			cp 046h		;8bd9	fe 46 	. F  
8bdb ca 09 13			jp z,01309h		;8bdb	ca 09 13 	. . .  
8bde fe 47			cp 047h		;8bde	fe 47 	. G  
8be0 ca d3 17			jp z,017d3h		;8be0	ca d3 17 	. . .  
8be3 fe 49			cp 049h		;8be3	fe 49 	. I  
8be5 ca e3 13			jp z,013e3h		;8be5	ca e3 13 	. . .  
8be8 fe 4b			cp 04bh		;8be8	fe 4b 	. K  
8bea ca 60 13			jp z,01360h		;8bea	ca 60 13 	. ` .  
8bed fe 4c			cp 04ch		;8bed	fe 4c 	. L  
8bef ca 60 13			jp z,01360h		;8bef	ca 60 13 	. ` .  
8bf2 fe 4d			cp 04dh		;8bf2	fe 4d 	. M  
8bf4 ca ca 16			jp z,016cah		;8bf4	ca ca 16 	. . .  
8bf7 fe 4e			cp 04eh		;8bf7	fe 4e 	. N  
8bf9 ca aa 17			jp z,017aah		;8bf9	ca aa 17 	. . .  
8bfc fe 50			cp 050h		;8bfc	fe 50 	. P  
8bfe ca 60 13			jp z,01360h		;8bfe	ca 60 13 	. ` .  
8c01 fe 52			cp 052h		;8c01	fe 52 	. R  
8c03 ca fc 16			jp z,016fch		;8c03	ca fc 16 	. . .  
8c06 fe 53			cp 053h		;8c06	fe 53 	. S  
8c08 ca 60 13			jp z,01360h		;8c08	ca 60 13 	. ` .  
8c0b fe 54			cp 054h		;8c0b	fe 54 	. T  
8c0d ca 60 13			jp z,01360h		;8c0d	ca 60 13 	. ` .  
8c10 fe 57			cp 057h		;8c10	fe 57 	. W  
8c12 ca 60 13			jp z,01360h		;8c12	ca 60 13 	. ` .  
8c15 fe 58			cp 058h		;8c15	fe 58 	. X  
8c17 ca 37 18			jp z,01837h		;8c17	ca 37 18 	. 7 .  
8c1a fe 5a			cp 05ah		;8c1a	fe 5a 	. Z  
8c1c ca 12 14			jp z,01412h		;8c1c	ca 12 14 	. . .  
8c1f fe 4f			cp 04fh		;8c1f	fe 4f 	. O  
8c21 ca 9f 0e			jp z,00e9fh		;8c21	ca 9f 0e 	. . .  
8c24 fe 55			cp 055h		;8c24	fe 55 	. U  
8c26 ca fc 0e			jp z,00efch		;8c26	ca fc 0e 	. . .  
8c29 fe 59			cp 059h		;8c29	fe 59 	. Y  
8c2b ca 02 0f			jp z,00f02h		;8c2b	ca 02 0f 	. . .  
8c2e fe 51			cp 051h		;8c2e	fe 51 	. Q  
8c30 ca b1 0f			jp z,00fb1h		;8c30	ca b1 0f 	. . .  
8c33 fe 5e			cp 05eh		;8c33	fe 5e 	. ^  
8c35 ca d8 0e			jp z,00ed8h		;8c35	ca d8 0e 	. . .  
8c38 c3 43 0d			jp 00d43h		;8c38	c3 43 0d 	. C .  
8c3b 21 c6 1a			ld hl,01ac6h		;8c3b	21 c6 1a 	! . .  
8c3e 01 0d 00			ld bc,0000dh		;8c3e	01 0d 00 	. . .  
8c41 18 36			jr l8c79h		;8c41	18 36 	. 6  
8c43 21 d3 1a			ld hl,01ad3h		;8c43	21 d3 1a 	! . .  
8c46 01 0c 00			ld bc,0000ch		;8c46	01 0c 00 	. . .  
8c49 18 2e			jr l8c79h		;8c49	18 2e 	. .  
8c4b 21 ef 1a			ld hl,01aefh		;8c4b	21 ef 1a 	! . .  
8c4e 01 10 00			ld bc,00010h		;8c4e	01 10 00 	. . .  
8c51 18 26			jr l8c79h		;8c51	18 26 	. &  
8c53 21 df 1a			ld hl,01adfh		;8c53	21 df 1a 	! . .  
8c56 01 10 00			ld bc,00010h		;8c56	01 10 00 	. . .  
8c59 18 1e			jr l8c79h		;8c59	18 1e 	. .  
8c5b 21 ff 1a			ld hl,01affh		;8c5b	21 ff 1a 	! . .  
8c5e 01 08 00			ld bc,00008h		;8c5e	01 08 00 	. . .  
8c61 18 16			jr l8c79h		;8c61	18 16 	. .  
8c63 21 07 1b			ld hl,01b07h		;8c63	21 07 1b 	! . .  
8c66 01 0c 00			ld bc,0000ch		;8c66	01 0c 00 	. . .  
8c69 18 0e			jr l8c79h		;8c69	18 0e 	. .  
8c6b 21 13 1b			ld hl,01b13h		;8c6b	21 13 1b 	! . .  
8c6e 01 08 00			ld bc,00008h		;8c6e	01 08 00 	. . .  
8c71 18 06			jr l8c79h		;8c71	18 06 	. .  
8c73 21 1b 1b			ld hl,01b1bh		;8c73	21 1b 1b 	! . .  
8c76 01 0b 00			ld bc,0000bh		;8c76	01 0b 00 	. . .  
8c79			l8c79h: 
8c79 cd ee 18			call 018eeh		;8c79	cd ee 18 	. . .  
8c7c 21 2f 1b			ld hl,01b2fh		;8c7c	21 2f 1b 	! / .  
8c7f 01 02 00			ld bc,00002h		;8c7f	01 02 00 	. . .  
8c82 3a 0f 1d			ld a,(01d0fh)		;8c82	3a 0f 1d 	: . .  
8c85 b7				or a			;8c85	b7 	.  
8c86 28 06			jr z,l8c8eh		;8c86	28 06 	( .  
8c88 21 26 1b			ld hl,01b26h		;8c88	21 26 1b 	! & .  
8c8b 01 0b 00			ld bc,0000bh		;8c8b	01 0b 00 	. . .  
8c8e			l8c8eh: 
8c8e cd ee 18			call 018eeh		;8c8e	cd ee 18 	. . .  
8c91 2a d0 1c			ld hl,(01cd0h)		;8c91	2a d0 1c 	* . .  
8c94 eb				ex de,hl			;8c94	eb 	.  
8c95 2a d2 1c			ld hl,(01cd2h)		;8c95	2a d2 1c 	* . .  
8c98 cd e9 18			call 018e9h		;8c98	cd e9 18 	. . .  
8c9b cd 7f 18			call 0187fh		;8c9b	cd 7f 18 	.  .  
8c9e c3 a1 0a			jp 00aa1h		;8c9e	c3 a1 0a 	. . .  
8ca1 2a 15 1d			ld hl,(01d15h)		;8ca1	2a 15 1d 	* . .  
8ca4 ed 5b 13 1d		ld de,(01d13h)		;8ca4	ed 5b 13 1d 	. [ . .  
8ca8 cd 8b 1a			call 01a8bh		;8ca8	cd 8b 1a 	. . .  
8cab 28 25			jr z,l8cd2h		;8cab	28 25 	( %  
8cad 11 00 00			ld de,00000h		;8cad	11 00 00 	. . .  
8cb0 cd 31 1a			call 01a31h		;8cb0	cd 31 1a 	. 1 .  
8cb3 cd 8b 1a			call 01a8bh		;8cb3	cd 8b 1a 	. . .  
8cb6 28 1a			jr z,l8cd2h		;8cb6	28 1a 	( .  
8cb8 41				ld b,c			;8cb8	41 	A  
8cb9 0e 00			ld c,000h		;8cb9	0e 00 	. .  
8cbb			l8cbbh: 
8cbb 1a				ld a,(de)			;8cbb	1a 	.  
8cbc 13				inc de			;8cbc	13 	.  
8cbd 0c				inc c			;8cbd	0c 	.  
8cbe fe 09			cp 009h		;8cbe	fe 09 	. .  
8cc0 20 09			jr nz,l8ccbh		;8cc0	20 09 	  .  
8cc2			l8cc2h: 
8cc2 79				ld a,c			;8cc2	79 	y  
8cc3 fd a6 b6			and (iy-04ah)		;8cc3	fd a6 b6 	. . .  
8cc6 28 08			jr z,l8cd0h		;8cc6	28 08 	( .  
8cc8 0c				inc c			;8cc8	0c 	.  
8cc9 18 f7			jr l8cc2h		;8cc9	18 f7 	. .  
8ccb			l8ccbh: 
8ccb fe 20			cp 020h		;8ccb	fe 20 	.    
8ccd 30 01			jr nc,l8cd0h		;8ccd	30 01 	0 .  
8ccf 0c				inc c			;8ccf	0c 	.  
8cd0			l8cd0h: 
8cd0 10 e9			djnz l8cbbh		;8cd0	10 e9 	. .  
8cd2			l8cd2h: 
8cd2 79				ld a,c			;8cd2	79 	y  
8cd3 fd 96 ba			sub (iy-046h)		;8cd3	fd 96 ba 	. . .  
8cd6 30 01			jr nc,l8cd9h		;8cd6	30 01 	0 .  
8cd8 af				xor a			;8cd8	af 	.  
8cd9			l8cd9h: 
8cd9 fd a6 bb			and (iy-045h)		;8cd9	fd a6 bb 	. . .  
8cdc fd 77 b8			ld (iy-048h),a		;8cdc	fd 77 b8 	. w .  
8cdf c6 28			add a,028h		;8cdf	c6 28 	. (  
8ce1 fd 77 b9			ld (iy-047h),a		;8ce1	fd 77 b9 	. w .  
8ce4 c9				ret			;8ce4	c9 	.  
8ce5 cd 62 1a			call 01a62h		;8ce5	cd 62 1a 	. b .  
8ce8 3a e4 1c			ld a,(01ce4h)		;8ce8	3a e4 1c 	: . .  
8ceb fe 08			cp 008h		;8ceb	fe 08 	. .  
8ced d2 4b 0d			jp nc,00d4bh		;8ced	d2 4b 0d 	. K .  
8cf0 6f				ld l,a			;8cf0	6f 	o  
8cf1 26 00			ld h,000h		;8cf1	26 00 	& .  
8cf3 3c				inc a			;8cf3	3c 	<  
8cf4 32 e4 1c			ld (01ce4h),a		;8cf4	32 e4 1c 	2 . .  
8cf7 29				add hl,hl			;8cf7	29 	)  
8cf8 29				add hl,hl			;8cf8	29 	)  
8cf9 11 e5 1c			ld de,01ce5h		;8cf9	11 e5 1c 	. . .  
8cfc 19				add hl,de			;8cfc	19 	.  
8cfd eb				ex de,hl			;8cfd	eb 	.  
8cfe 2a d9 1c			ld hl,(01cd9h)		;8cfe	2a d9 1c 	* . .  
8d01 eb				ex de,hl			;8d01	eb 	.  
8d02 14				inc d			;8d02	14 	.  
8d03 73				ld (hl),e			;8d03	73 	s  
8d04 23				inc hl			;8d04	23 	#  
8d05 72				ld (hl),d			;8d05	72 	r  
8d06 eb				ex de,hl			;8d06	eb 	.  
8d07 2a d6 1c			ld hl,(01cd6h)		;8d07	2a d6 1c 	* . .  
8d0a eb				ex de,hl			;8d0a	eb 	.  
8d0b 23				inc hl			;8d0b	23 	#  
8d0c 73				ld (hl),e			;8d0c	73 	s  
8d0d 23				inc hl			;8d0d	23 	#  
8d0e 72				ld (hl),d			;8d0e	72 	r  
8d0f c9				ret			;8d0f	c9 	.  
8d10 cd 72 1a			call 01a72h		;8d10	cd 72 1a 	. r .  
8d13 3a e4 1c			ld a,(01ce4h)		;8d13	3a e4 1c 	: . .  
8d16 b7				or a			;8d16	b7 	.  
8d17 ca 4b 0d			jp z,00d4bh		;8d17	ca 4b 0d 	. K .  
8d1a 6f				ld l,a			;8d1a	6f 	o  
8d1b 2d				dec l			;8d1b	2d 	-  
8d1c 26 00			ld h,000h		;8d1c	26 00 	& .  
8d1e 29				add hl,hl			;8d1e	29 	)  
8d1f 29				add hl,hl			;8d1f	29 	)  
8d20 11 e5 1c			ld de,01ce5h		;8d20	11 e5 1c 	. . .  
8d23 19				add hl,de			;8d23	19 	.  
8d24 35				dec (hl)			;8d24	35 	5  
8d25 23				inc hl			;8d25	23 	#  
8d26 20 08			jr nz,l8d30h		;8d26	20 08 	  .  
8d28			sub_8d28h: 
8d28 35				dec (hl)			;8d28	35 	5  
8d29 20 05			jr nz,l8d30h		;8d29	20 05 	  .  
8d2b 3d				dec a			;8d2b	3d 	=  
8d2c 32 e4 1c			ld (01ce4h),a		;8d2c	32 e4 1c 	2 . .  
8d2f c9				ret			;8d2f	c9 	.  
8d30			l8d30h: 
8d30 23				inc hl			;8d30	23 	#  
8d31 5e				ld e,(hl)			;8d31	5e 	^  
8d32 23				inc hl			;8d32	23 	#  
8d33 56				ld d,(hl)			;8d33	56 	V  
8d34 eb				ex de,hl			;8d34	eb 	.  
8d35 22 d6 1c			ld (01cd6h),hl		;8d35	22 d6 1c 	" . .  
8d38 c9				ret			;8d38	c9 	.  
8d39 2a d9 1c			ld hl,(01cd9h)		;8d39	2a d9 1c 	* . .  
8d3c 7c				ld a,h			;8d3c	7c 	|  
8d3d b5				or l			;8d3d	b5 	.  
8d3e c8				ret z			;8d3e	c8 	.  
8d3f 3a db 1c			ld a,(01cdbh)		;8d3f	3a db 1c 	: . .  
8d42 b7				or a			;8d42	b7 	.  
8d43 20 2c			jr nz,l8d71h		;8d43	20 2c 	  ,  
8d45 2a 17 1d			ld hl,(01d17h)		;8d45	2a 17 1d 	* . .  
8d48 eb				ex de,hl			;8d48	eb 	.  
8d49 d5				push de			;8d49	d5 	.  
8d4a 2a d9 1c			ld hl,(01cd9h)		;8d4a	2a d9 1c 	* . .  
8d4d 19				add hl,de			;8d4d	19 	.  
8d4e eb				ex de,hl			;8d4e	eb 	.  
8d4f 2a 19 1d			ld hl,(01d19h)		;8d4f	2a 19 1d 	* . .  
8d52 38 07			jr c,l8d5bh		;8d52	38 07 	8 .  
8d54 7d				ld a,l			;8d54	7d 	}  
8d55 93				sub e			;8d55	93 	.  
8d56 7c				ld a,h			;8d56	7c 	|  
8d57 9a				sbc a,d			;8d57	9a 	.  
8d58 38 01			jr c,l8d5bh		;8d58	38 01 	8 .  
8d5a eb				ex de,hl			;8d5a	eb 	.  
8d5b			l8d5bh: 
8d5b d1				pop de			;8d5b	d1 	.  
8d5c 3a d8 1c			ld a,(01cd8h)		;8d5c	3a d8 1c 	: . .  
8d5f fe 43			cp 043h		;8d5f	fe 43 	. C  
8d61 ca 19 14			jp z,01419h		;8d61	ca 19 14 	. . .  
8d64 fe 44			cp 044h		;8d64	fe 44 	. D  
8d66 ca 20 14			jp z,01420h		;8d66	ca 20 14 	.   .  
8d69 fe 58			cp 058h		;8d69	fe 58 	. X  
8d6b ca 20 14			jp z,01420h		;8d6b	ca 20 14 	.   .  
8d6e c3 53 0d			jp 00d53h		;8d6e	c3 53 0d 	. S .  
8d71			l8d71h: 
8d71 2a d9 1c			ld hl,(01cd9h)		;8d71	2a d9 1c 	* . .  
8d74 eb				ex de,hl			;8d74	eb 	.  
8d75 2a 15 1d			ld hl,(01d15h)		;8d75	2a 15 1d 	* . .  
8d78 e5				push hl			;8d78	e5 	.  
8d79 b7				or a			;8d79	b7 	.  
8d7a ed 52			sbc hl,de		;8d7a	ed 52 	. R  
8d7c eb				ex de,hl			;8d7c	eb 	.  
8d7d 2a 13 1d			ld hl,(01d13h)		;8d7d	2a 13 1d 	* . .  
8d80 38 06			jr c,l8d88h		;8d80	38 06 	8 .  
8d82 7d				ld a,l			;8d82	7d 	}  
8d83 93				sub e			;8d83	93 	.  
8d84 7c				ld a,h			;8d84	7c 	|  
8d85 9a				sbc a,d			;8d85	9a 	.  
8d86 38 01			jr c,l8d89h		;8d86	38 01 	8 .  
8d88			l8d88h: 
8d88 eb				ex de,hl			;8d88	eb 	.  
8d89			l8d89h: 
8d89 e1				pop hl			;8d89	e1 	.  
8d8a 3a d8 1c			ld a,(01cd8h)		;8d8a	3a d8 1c 	: . .  
8d8d fe 43			cp 043h		;8d8d	fe 43 	. C  
8d8f ca 2b 14			jp z,0142bh		;8d8f	ca 2b 14 	. + .  
8d92 fe 44			cp 044h		;8d92	fe 44 	. D  
8d94 ca 32 14			jp z,01432h		;8d94	ca 32 14 	. 2 .  
8d97 fe 58			cp 058h		;8d97	fe 58 	. X  
8d99 ca 32 14			jp z,01432h		;8d99	ca 32 14 	. 2 .  
8d9c c3 53 0d			jp 00d53h		;8d9c	c3 53 0d 	. S .  
8d9f cd 72 1a			call 01a72h		;8d9f	cd 72 1a 	. r .  
8da2 ed 5b 17 1d		ld de,(01d17h)		;8da2	ed 5b 17 1d 	. [ . .  
8da6 2a 19 1d			ld hl,(01d19h)		;8da6	2a 19 1d 	* . .  
8da9 cd 8b 1a			call 01a8bh		;8da9	cd 8b 1a 	. . .  
8dac c8				ret z			;8dac	c8 	.  
8dad 1a				ld a,(de)			;8dad	1a 	.  
8dae cd 50 1b			call 01b50h		;8dae	cd 50 1b 	. P .  
8db1 13				inc de			;8db1	13 	.  
8db2 ed 53 17 1d		ld (01d17h),de		;8db2	ed 53 17 1d 	. S . .  
8db6 fe 61			cp 061h		;8db6	fe 61 	. a  
8db8 38 08			jr c,l8dc2h		;8db8	38 08 	8 .  
8dba fe 7b			cp 07bh		;8dba	fe 7b 	. {  
8dbc 30 0e			jr nc,l8dcch		;8dbc	30 0e 	0 .  
8dbe d6 20			sub 020h		;8dbe	d6 20 	.    
8dc0 18 0a			jr l8dcch		;8dc0	18 0a 	. .  
8dc2			l8dc2h: 
8dc2 fe 41			cp 041h		;8dc2	fe 41 	. A  
8dc4 38 06			jr c,l8dcch		;8dc4	38 06 	8 .  
8dc6 fe 5b			cp 05bh		;8dc6	fe 5b 	. [  
8dc8 30 02			jr nc,l8dcch		;8dc8	30 02 	0 .  
8dca c6 20			add a,020h		;8dca	c6 20 	.    
8dcc			l8dcch: 
8dcc 2a 15 1d			ld hl,(01d15h)		;8dcc	2a 15 1d 	* . .  
8dcf cd 31 1b			call 01b31h		;8dcf	cd 31 1b 	. 1 .  
8dd2 77				ld (hl),a			;8dd2	77 	w  
8dd3 23				inc hl			;8dd3	23 	#  
8dd4 22 15 1d			ld (01d15h),hl		;8dd4	22 15 1d 	" . .  
8dd7 c9				ret			;8dd7	c9 	.  
8dd8 cd 72 1a			call 01a72h		;8dd8	cd 72 1a 	. r .  
8ddb 2a 17 1d			ld hl,(01d17h)		;8ddb	2a 17 1d 	* . .  
8dde ed 5b 15 1d		ld de,(01d15h)		;8dde	ed 5b 15 1d 	. [ . .  
8de2 cd 8b 1a			call 01a8bh		;8de2	cd 8b 1a 	. . .  
8de5 da 5b 0d			jp c,00d5bh		;8de5	da 5b 0d 	. [ .  
8de8 2a d6 1c			ld hl,(01cd6h)		;8de8	2a d6 1c 	* . .  
8deb 7e				ld a,(hl)			;8deb	7e 	~  
8dec 23				inc hl			;8dec	23 	#  
8ded 22 d6 1c			ld (01cd6h),hl		;8ded	22 d6 1c 	" . .  
8df0 cd 50 1b			call 01b50h		;8df0	cd 50 1b 	. P .  
8df3 e6 1f			and 01fh		;8df3	e6 1f 	. .  
8df5 12				ld (de),a			;8df5	12 	.  
8df6 13				inc de			;8df6	13 	.  
8df7 ed 53 15 1d		ld (01d15h),de		;8df7	ed 53 15 1d 	. S . .  
8dfb c9				ret			;8dfb	c9 	.  
8dfc fd 36 c4 00		ld (iy-03ch),000h		;8dfc	fd 36 c4 00 	. 6 . .  
8e00 18 04			jr l8e06h		;8e00	18 04 	. .  
8e02 fd 36 c4 ff		ld (iy-03ch),0ffh		;8e02	fd 36 c4 ff 	. 6 . .  
8e06			l8e06h: 
8e06 2a d9 1c			ld hl,(01cd9h)		;8e06	2a d9 1c 	* . .  
8e09 2b				dec hl			;8e09	2b 	+  
8e0a 7c				ld a,h			;8e0a	7c 	|  
8e0b b5				or l			;8e0b	b5 	.  
8e0c c2 3b 0d			jp nz,00d3bh		;8e0c	c2 3b 0d 	. ; .  
8e0f 3a db 1c			ld a,(01cdbh)		;8e0f	3a db 1c 	: . .  
8e12 b7				or a			;8e12	b7 	.  
8e13 20 23			jr nz,l8e38h		;8e13	20 23 	  #  
8e15 ed 5b 17 1d		ld de,(01d17h)		;8e15	ed 5b 17 1d 	. [ . .  
8e19 2a 19 1d			ld hl,(01d19h)		;8e19	2a 19 1d 	* . .  
8e1c cd 8b 1a			call 01a8bh		;8e1c	cd 8b 1a 	. . .  
8e1f c8				ret z			;8e1f	c8 	.  
8e20 eb				ex de,hl			;8e20	eb 	.  
8e21 11 01 00			ld de,00001h		;8e21	11 01 00 	. . .  
8e24 03				inc bc			;8e24	03 	.  
8e25 cd 65 0f			call 00f65h		;8e25	cd 65 0f 	. e .  
8e28 20 33			jr nz,l8e5dh		;8e28	20 33 	  3  
8e2a ed 5b 17 1d		ld de,(01d17h)		;8e2a	ed 5b 17 1d 	. [ . .  
8e2e cd 8b 1a			call 01a8bh		;8e2e	cd 8b 1a 	. . .  
8e31 22 17 1d			ld (01d17h),hl		;8e31	22 17 1d 	" . .  
8e34 cd a3 1a			call 01aa3h		;8e34	cd a3 1a 	. . .  
8e37 c9				ret			;8e37	c9 	.  
8e38			l8e38h: 
8e38 ed 5b 13 1d		ld de,(01d13h)		;8e38	ed 5b 13 1d 	. [ . .  
8e3c 2a 15 1d			ld hl,(01d15h)		;8e3c	2a 15 1d 	* . .  
8e3f cd 8b 1a			call 01a8bh		;8e3f	cd 8b 1a 	. . .  
8e42 c8				ret z			;8e42	c8 	.  
8e43 11 ff ff			ld de,0ffffh		;8e43	11 ff ff 	. . .  
8e46 2b				dec hl			;8e46	2b 	+  
8e47 03				inc bc			;8e47	03 	.  
8e48 cd 65 0f			call 00f65h		;8e48	cd 65 0f 	. e .  
8e4b 23				inc hl			;8e4b	23 	#  
8e4c 20 13			jr nz,l8e61h		;8e4c	20 13 	  .  
8e4e eb				ex de,hl			;8e4e	eb 	.  
8e4f 2a 15 1d			ld hl,(01d15h)		;8e4f	2a 15 1d 	* . .  
8e52 ed 53 15 1d		ld (01d15h),de		;8e52	ed 53 15 1d 	. S . .  
8e56 cd 8b 1a			call 01a8bh		;8e56	cd 8b 1a 	. . .  
8e59 cd 93 1a			call 01a93h		;8e59	cd 93 1a 	. . .  
8e5c c9				ret			;8e5c	c9 	.  
8e5d			l8e5dh: 
8e5d 22 17 1d			ld (01d17h),hl		;8e5d	22 17 1d 	" . .  
8e60 c9				ret			;8e60	c9 	.  
8e61			l8e61h: 
8e61 22 15 1d			ld (01d15h),hl		;8e61	22 15 1d 	" . .  
8e64 c9				ret			;8e64	c9 	.  
8e65			l8e65h: 
8e65 cd 91 0f			call 00f91h		;8e65	cd 91 0f 	. . .  
8e68 38 22			jr c,l8e8ch		;8e68	38 22 	8 "  
8e6a cd 9c 0f			call 00f9ch		;8e6a	cd 9c 0f 	. . .  
8e6d 38 f6			jr c,l8e65h		;8e6d	38 f6 	8 .  
8e6f			l8e6fh: 
8e6f cd 91 0f			call 00f91h		;8e6f	cd 91 0f 	. . .  
8e72 38 18			jr c,l8e8ch		;8e72	38 18 	8 .  
8e74 cd 9c 0f			call 00f9ch		;8e74	cd 9c 0f 	. . .  
8e77 30 f6			jr nc,l8e6fh		;8e77	30 f6 	0 .  
8e79 fd cb c6 4e		bit 1,(iy-03ah)		;8e79	fd cb c6 4e 	. . . N  
8e7d 20 0a			jr nz,l8e89h		;8e7d	20 0a 	  .  
8e7f			l8e7fh: 
8e7f cd 91 0f			call 00f91h		;8e7f	cd 91 0f 	. . .  
8e82 38 08			jr c,l8e8ch		;8e82	38 08 	8 .  
8e84 cd 9c 0f			call 00f9ch		;8e84	cd 9c 0f 	. . .  
8e87 38 f6			jr c,l8e7fh		;8e87	38 f6 	8 .  
8e89			l8e89h: 
8e89 b7				or a			;8e89	b7 	.  
8e8a ed 52			sbc hl,de		;8e8a	ed 52 	. R  
8e8c			l8e8ch: 
8e8c fd 7e c4			ld a,(iy-03ch)		;8e8c	fd 7e c4 	. ~ .  
8e8f b7				or a			;8e8f	b7 	.  
8e90 c9				ret			;8e90	c9 	.  
8e91 0b				dec bc			;8e91	0b 	.  
8e92 78				ld a,b			;8e92	78 	x  
8e93 b1				or c			;8e93	b1 	.  
8e94 28 04			jr z,l8e9ah		;8e94	28 04 	( .  
8e96 7e				ld a,(hl)			;8e96	7e 	~  
8e97 19				add hl,de			;8e97	19 	.  
8e98 b7				or a			;8e98	b7 	.  
8e99 c9				ret			;8e99	c9 	.  
8e9a			l8e9ah: 
8e9a 37				scf			;8e9a	37 	7  
8e9b c9				ret			;8e9b	c9 	.  
8e9c c8				ret z			;8e9c	c8 	.  
8e9d d6 30			sub 030h		;8e9d	d6 30 	. 0  
8e9f d8				ret c			;8e9f	d8 	.  
8ea0 d6 0a			sub 00ah		;8ea0	d6 0a 	. .  
8ea2 38 0b			jr c,l8eafh		;8ea2	38 0b 	8 .  
8ea4 d6 07			sub 007h		;8ea4	d6 07 	. .  
8ea6			l8ea6h: 
8ea6 d8				ret c			;8ea6	d8 	.  
8ea7 d6 1a			sub 01ah		;8ea7	d6 1a 	. .  
8ea9 38 04			jr c,l8eafh		;8ea9	38 04 	8 .  
8eab d6 06			sub 006h		;8eab	d6 06 	. .  
8ead 18 f7			jr l8ea6h		;8ead	18 f7 	. .  
8eaf			l8eafh: 
8eaf b7				or a			;8eaf	b7 	.  
8eb0 c9				ret			;8eb0	c9 	.  
8eb1 cd 85 0c			call 00c85h		;8eb1	cd 85 0c 	. . .  
8eb4 ca 43 0d			jp z,00d43h		;8eb4	ca 43 0d 	. C .  
8eb7 fe 44			cp 044h		;8eb7	fe 44 	. D  
8eb9 28 6e			jr z,l8f29h		;8eb9	28 6e 	( n  
8ebb fe 4d			cp 04dh		;8ebb	fe 4d 	. M  
8ebd ca da 10			jp z,010dah		;8ebd	ca da 10 	. . .  
8ec0 fe 43			cp 043h		;8ec0	fe 43 	. C  
8ec2 ca 7f 10			jp z,0107fh		;8ec2	ca 7f 10 	.  .  
8ec5 fe 4b			cp 04bh		;8ec5	fe 4b 	. K  
8ec7 ca e6 11			jp z,011e6h		;8ec7	ca e6 11 	. . .  
8eca fe 55			cp 055h		;8eca	fe 55 	. U  
8ecc ca d8 12			jp z,012d8h		;8ecc	ca d8 12 	. . .  
8ecf fe 53			cp 053h		;8ecf	fe 53 	. S  
8ed1 28 3a			jr z,l8f0dh		;8ed1	28 3a 	( :  
8ed3 fe 4c			cp 04ch		;8ed3	fe 4c 	. L  
8ed5 ca 79 12			jp z,01279h		;8ed5	ca 79 12 	. y .  
8ed8 fe 45			cp 045h		;8ed8	fe 45 	. E  
8eda ca 51 12			jp z,01251h		;8eda	ca 51 12 	. Q .  
8edd fe 52			cp 052h		;8edd	fe 52 	. R  
8edf ca 61 12			jp z,01261h		;8edf	ca 61 12 	. a .  
8ee2 fe 58			cp 058h		;8ee2	fe 58 	. X  
8ee4 ca 08 10			jp z,01008h		;8ee4	ca 08 10 	. . .  
8ee7 fe 46			cp 046h		;8ee7	fe 46 	. F  
8ee9 ca cf 14			jp z,014cfh		;8ee9	ca cf 14 	. . .  
8eec fe 50			cp 050h		;8eec	fe 50 	. P  
8eee ca 2f 1e			jp z,01e2fh		;8eee	ca 2f 1e 	. / .  
8ef1 fe 2a			cp 02ah		;8ef1	fe 2a 	. *  
8ef3 ca 50 28			jp z,02850h		;8ef3	ca 50 28 	. P (  
8ef6 fe 57			cp 057h		;8ef6	fe 57 	. W  
8ef8 ca 33 1e			jp z,01e33h		;8ef8	ca 33 1e 	. 3 .  
8efb fe 54			cp 054h		;8efb	fe 54 	. T  
8efd ca 3d 1e			jp z,01e3dh		;8efd	ca 3d 1e 	. = .  
8f00 fe 56			cp 056h		;8f00	fe 56 	. V  
8f02 ca 28 1e			jp z,01e28h		;8f02	ca 28 1e 	. ( .  
8f05 c3 43 0d			jp 00d43h		;8f05	c3 43 0d 	. C .  
8f08 fd cb c6 e6		set 4,(iy-03ah)		;8f08	fd cb c6 e6 	. . . .  
8f0c c9				ret			;8f0c	c9 	.  
8f0d			l8f0dh: 
8f0d 2a d9 1c			ld hl,(01cd9h)		;8f0d	2a d9 1c 	* . .  
8f10 7c				ld a,h			;8f10	7c 	|  
8f11 b7				or a			;8f11	b7 	.  
8f12 20 11			jr nz,l8f25h		;8f12	20 11 	  .  
8f14 7d				ld a,l			;8f14	7d 	}  
8f15 fe 14			cp 014h		;8f15	fe 14 	. .  
8f17 38 08			jr c,l8f21h		;8f17	38 08 	8 .  
8f19 fe c8			cp 0c8h		;8f19	fe c8 	. .  
8f1b 30 08			jr nc,l8f25h		;8f1b	30 08 	0 .  
8f1d			l8f1dh: 
8f1d fd 77 bd			ld (iy-043h),a		;8f1d	fd 77 bd 	. w .  
8f20 c9				ret			;8f20	c9 	.  
8f21			l8f21h: 
8f21 3e 14			ld a,014h		;8f21	3e 14 	> .  
8f23 18 f8			jr l8f1dh		;8f23	18 f8 	. .  
8f25			l8f25h: 
8f25 3e c8			ld a,0c8h		;8f25	3e c8 	> .  
8f27 18 f4			jr l8f1dh		;8f27	18 f4 	. .  
8f29			l8f29h: 
8f29 2a d9 1c			ld hl,(01cd9h)		;8f29	2a d9 1c 	* . .  
8f2c 7c				ld a,h			;8f2c	7c 	|  
8f2d b5				or l			;8f2d	b5 	.  
8f2e 28 0a			jr z,l8f3ah		;8f2e	28 0a 	( .  
8f30 3a db 1c			ld a,(01cdbh)		;8f30	3a db 1c 	: . .  
8f33 b7				or a			;8f33	b7 	.  
8f34 20 07			jr nz,l8f3dh		;8f34	20 07 	  .  
8f36 cd 41 10			call 01041h		;8f36	cd 41 10 	. A .  
8f39 c9				ret			;8f39	c9 	.  
8f3a			l8f3ah: 
8f3a cd 41 10			call 01041h		;8f3a	cd 41 10 	. A .  
8f3d			l8f3dh: 
8f3d cd 60 10			call 01060h		;8f3d	cd 60 10 	. ` .  
8f40 c9				ret			;8f40	c9 	.  
8f41 2a 19 1d			ld hl,(01d19h)		;8f41	2a 19 1d 	* . .  
8f44 ed 5b 17 1d		ld de,(01d17h)		;8f44	ed 5b 17 1d 	. [ . .  
8f48 cd 8b 1a			call 01a8bh		;8f48	cd 8b 1a 	. . .  
8f4b c8				ret z			;8f4b	c8 	.  
8f4c 54				ld d,h			;8f4c	54 	T  
8f4d 5d				ld e,l			;8f4d	5d 	]  
8f4e			l8f4eh: 
8f4e 2b				dec hl			;8f4e	2b 	+  
8f4f 7e				ld a,(hl)			;8f4f	7e 	~  
8f50 fe 80			cp 080h		;8f50	fe 80 	. .  
8f52 28 02			jr z,l8f56h		;8f52	28 02 	( .  
8f54 1b				dec de			;8f54	1b 	.  
8f55 12				ld (de),a			;8f55	12 	.  
8f56			l8f56h: 
8f56 0b				dec bc			;8f56	0b 	.  
8f57 78				ld a,b			;8f57	78 	x  
8f58 b1				or c			;8f58	b1 	.  
8f59 20 f3			jr nz,l8f4eh		;8f59	20 f3 	  .  
8f5b ed 53 17 1d		ld (01d17h),de		;8f5b	ed 53 17 1d 	. S . .  
8f5f c9				ret			;8f5f	c9 	.  
8f60 2a 15 1d			ld hl,(01d15h)		;8f60	2a 15 1d 	* . .  
8f63 ed 5b 13 1d		ld de,(01d13h)		;8f63	ed 5b 13 1d 	. [ . .  
8f67 cd 8b 1a			call 01a8bh		;8f67	cd 8b 1a 	. . .  
8f6a c8				ret z			;8f6a	c8 	.  
8f6b 62				ld h,d			;8f6b	62 	b  
8f6c 6b				ld l,e			;8f6c	6b 	k  
8f6d			l8f6dh: 
8f6d 7e				ld a,(hl)			;8f6d	7e 	~  
8f6e fe 80			cp 080h		;8f6e	fe 80 	. .  
8f70 28 02			jr z,l8f74h		;8f70	28 02 	( .  
8f72 12				ld (de),a			;8f72	12 	.  
8f73 13				inc de			;8f73	13 	.  
8f74			l8f74h: 
8f74 23				inc hl			;8f74	23 	#  
8f75 0b				dec bc			;8f75	0b 	.  
8f76 78				ld a,b			;8f76	78 	x  
8f77 b1				or c			;8f77	b1 	.  
8f78 20 f3			jr nz,l8f6dh		;8f78	20 f3 	  .  
8f7a ed 53 15 1d		ld (01d15h),de		;8f7a	ed 53 15 1d 	. S . .  
8f7e c9				ret			;8f7e	c9 	.  
8f7f cd 72 1a			call 01a72h		;8f7f	cd 72 1a 	. r .  
8f82 2a 15 1d			ld hl,(01d15h)		;8f82	2a 15 1d 	* . .  
8f85 ed 5b 13 1d		ld de,(01d13h)		;8f85	ed 5b 13 1d 	. [ . .  
8f89 cd 8a 11			call 0118ah		;8f89	cd 8a 11 	. . .  
8f8c 38 3b			jr c,l8fc9h		;8f8c	38 3b 	8 ;  
8f8e 28 2b			jr z,l8fbbh		;8f8e	28 2b 	( +  
8f90			l8f90h: 
8f90 2a 17 1d			ld hl,(01d17h)		;8f90	2a 17 1d 	* . .  
8f93 ed 5b 15 1d		ld de,(01d15h)		;8f93	ed 5b 15 1d 	. [ . .  
8f97 cd 8b 1a			call 01a8bh		;8f97	cd 8b 1a 	. . .  
8f9a ca 5b 0d			jp z,00d5bh		;8f9a	ca 5b 0d 	. [ .  
8f9d 2a 1b 1d			ld hl,(01d1bh)		;8f9d	2a 1b 1d 	* . .  
8fa0 ed 42			sbc hl,bc		;8fa0	ed 42 	. B  
8fa2 d2 5b 0d			jp nc,00d5bh		;8fa2	d2 5b 0d 	. [ .  
8fa5 2a 1f 1d			ld hl,(01d1fh)		;8fa5	2a 1f 1d 	* . .  
8fa8 23				inc hl			;8fa8	23 	#  
8fa9 ed 4b 1b 1d		ld bc,(01d1bh)		;8fa9	ed 4b 1b 1d 	. K . .  
8fad 78				ld a,b			;8fad	78 	x  
8fae b1				or c			;8fae	b1 	.  
8faf c8				ret z			;8faf	c8 	.  
8fb0 ed 5b 15 1d		ld de,(01d15h)		;8fb0	ed 5b 15 1d 	. [ . .  
8fb4 ed b0			ldir		;8fb4	ed b0 	. .  
8fb6 ed 53 15 1d		ld (01d15h),de		;8fb6	ed 53 15 1d 	. S . .  
8fba c9				ret			;8fba	c9 	.  
8fbb			l8fbbh: 
8fbb 2a 19 1d			ld hl,(01d19h)		;8fbb	2a 19 1d 	* . .  
8fbe ed 5b 17 1d		ld de,(01d17h)		;8fbe	ed 5b 17 1d 	. [ . .  
8fc2 cd 8a 11			call 0118ah		;8fc2	cd 8a 11 	. . .  
8fc5 38 02			jr c,l8fc9h		;8fc5	38 02 	8 .  
8fc7 20 c7			jr nz,l8f90h		;8fc7	20 c7 	  .  
8fc9			l8fc9h: 
8fc9 21 d2 10			ld hl,010d2h		;8fc9	21 d2 10 	! . .  
8fcc 01 08 00			ld bc,00008h		;8fcc	01 08 00 	. . .  
8fcf c3 79 0d			jp 00d79h		;8fcf	c3 79 0d 	. y .  
8fd2 3f				ccf			;8fd2	3f 	?  
8fd3 4d				ld c,l			;8fd3	4d 	M  
8fd4 61				ld h,c			;8fd4	61 	a  
8fd5 72				ld (hl),d			;8fd5	72 	r  
8fd6 6b				ld l,e			;8fd6	6b 	k  
8fd7 65				ld h,l			;8fd7	65 	e  
8fd8 72				ld (hl),d			;8fd8	72 	r  
8fd9 73				ld (hl),e			;8fd9	73 	s  
8fda cd 72 1a			call 01a72h		;8fda	cd 72 1a 	. r .  
8fdd 2a 15 1d			ld hl,(01d15h)		;8fdd	2a 15 1d 	* . .  
8fe0 ed 5b 13 1d		ld de,(01d13h)		;8fe0	ed 5b 13 1d 	. [ . .  
8fe4 cd 8a 11			call 0118ah		;8fe4	cd 8a 11 	. . .  
8fe7 38 e0			jr c,l8fc9h		;8fe7	38 e0 	8 .  
8fe9 28 3b			jr z,l9026h		;8fe9	28 3b 	( ;  
8feb			l8febh: 
8feb cd b9 11			call 011b9h		;8feb	cd b9 11 	. . .  
8fee 28 1d			jr z,l900dh		;8fee	28 1d 	( .  
8ff0 ed b0			ldir		;8ff0	ed b0 	. .  
8ff2 eb				ex de,hl			;8ff2	eb 	.  
8ff3 2a 15 1d			ld hl,(01d15h)		;8ff3	2a 15 1d 	* . .  
8ff6 cd 8b 1a			call 01a8bh		;8ff6	cd 8b 1a 	. . .  
8ff9 2a 1f 1d			ld hl,(01d1fh)		;8ff9	2a 1f 1d 	* . .  
8ffc 23				inc hl			;8ffc	23 	#  
8ffd eb				ex de,hl			;8ffd	eb 	.  
8ffe 28 02			jr z,l9002h		;8ffe	28 02 	( .  
9000 ed b0			ldir		;9000	ed b0 	. .  
9002			l9002h: 
9002 ed 4b 1d 1d		ld bc,(01d1dh)		;9002	ed 4b 1d 1d 	. K . .  
9006 21 23 1d			ld hl,01d23h		;9006	21 23 1d 	! # .  
9009 ed b0			ldir		;9009	ed b0 	. .  
900b 18 de			jr l8febh		;900b	18 de 	. .  
900d			l900dh: 
900d ed 5b 1f 1d		ld de,(01d1fh)		;900d	ed 5b 1f 1d 	. [ . .  
9011 2a 15 1d			ld hl,(01d15h)		;9011	2a 15 1d 	* . .  
9014 2b				dec hl			;9014	2b 	+  
9015 2b				dec hl			;9015	2b 	+  
9016 cd 8b 1a			call 01a8bh		;9016	cd 8b 1a 	. . .  
9019 62				ld h,d			;9019	62 	b  
901a 6b				ld l,e			;901a	6b 	k  
901b 23				inc hl			;901b	23 	#  
901c 23				inc hl			;901c	23 	#  
901d 28 02			jr z,l9021h		;901d	28 02 	( .  
901f ed b0			ldir		;901f	ed b0 	. .  
9021			l9021h: 
9021 ed 53 15 1d		ld (01d15h),de		;9021	ed 53 15 1d 	. S . .  
9025 c9				ret			;9025	c9 	.  
9026			l9026h: 
9026 2a 19 1d			ld hl,(01d19h)		;9026	2a 19 1d 	* . .  
9029 ed 5b 17 1d		ld de,(01d17h)		;9029	ed 5b 17 1d 	. [ . .  
902d cd 8a 11			call 0118ah		;902d	cd 8a 11 	. . .  
9030 38 97			jr c,l8fc9h		;9030	38 97 	8 .  
9032 28 95			jr z,l8fc9h		;9032	28 95 	( .  
9034			l9034h: 
9034 cd b9 11			call 011b9h		;9034	cd b9 11 	. . .  
9037 28 32			jr z,l906bh		;9037	28 32 	( 2  
9039 ed b0			ldir		;9039	ed b0 	. .  
903b e5				push hl			;903b	e5 	.  
903c 2a 1f 1d			ld hl,(01d1fh)		;903c	2a 1f 1d 	* . .  
903f 23				inc hl			;903f	23 	#  
9040 ed 5b 17 1d		ld de,(01d17h)		;9040	ed 5b 17 1d 	. [ . .  
9044 cd 8b 1a			call 01a8bh		;9044	cd 8b 1a 	. . .  
9047 e1				pop hl			;9047	e1 	.  
9048 2b				dec hl			;9048	2b 	+  
9049 ed 5b 1f 1d		ld de,(01d1fh)		;9049	ed 5b 1f 1d 	. [ . .  
904d 22 1f 1d			ld (01d1fh),hl		;904d	22 1f 1d 	" . .  
9050 eb				ex de,hl			;9050	eb 	.  
9051 ed b8			lddr		;9051	ed b8 	. .  
9053 13				inc de			;9053	13 	.  
9054 ed 53 17 1d		ld (01d17h),de		;9054	ed 53 17 1d 	. S . .  
9058 ed 5b 15 1d		ld de,(01d15h)		;9058	ed 5b 15 1d 	. [ . .  
905c 21 23 1d			ld hl,01d23h		;905c	21 23 1d 	! # .  
905f ed 4b 1d 1d		ld bc,(01d1dh)		;905f	ed 4b 1d 1d 	. K . .  
9063 ed b0			ldir		;9063	ed b0 	. .  
9065 ed 53 15 1d		ld (01d15h),de		;9065	ed 53 15 1d 	. S . .  
9069 18 c9			jr l9034h		;9069	18 c9 	. .  
906b			l906bh: 
906b 2a 1f 1d			ld hl,(01d1fh)		;906b	2a 1f 1d 	* . .  
906e ed 5b 17 1d		ld de,(01d17h)		;906e	ed 5b 17 1d 	. [ . .  
9072 cd 8b 1a			call 01a8bh		;9072	cd 8b 1a 	. . .  
9075 28 10			jr z,l9087h		;9075	28 10 	( .  
9077 2a 1f 1d			ld hl,(01d1fh)		;9077	2a 1f 1d 	* . .  
907a 2b				dec hl			;907a	2b 	+  
907b ed 5b 21 1d		ld de,(01d21h)		;907b	ed 5b 21 1d 	. [ ! .  
907f ed b8			lddr		;907f	ed b8 	. .  
9081			l9081h: 
9081 13				inc de			;9081	13 	.  
9082 ed 53 17 1d		ld (01d17h),de		;9082	ed 53 17 1d 	. S . .  
9086 c9				ret			;9086	c9 	.  
9087			l9087h: 
9087 13				inc de			;9087	13 	.  
9088 18 f7			jr l9081h		;9088	18 f7 	. .  
908a cd 8b 1a			call 01a8bh		;908a	cd 8b 1a 	. . .  
908d c8				ret z			;908d	c8 	.  
908e eb				ex de,hl			;908e	eb 	.  
908f			l908fh: 
908f 7e				ld a,(hl)			;908f	7e 	~  
9090 0b				dec bc			;9090	0b 	.  
9091 fe 80			cp 080h		;9091	fe 80 	. .  
9093 28 06			jr z,l909bh		;9093	28 06 	( .  
9095 23				inc hl			;9095	23 	#  
9096 78				ld a,b			;9096	78 	x  
9097 b1				or c			;9097	b1 	.  
9098 20 f5			jr nz,l908fh		;9098	20 f5 	  .  
909a c9				ret			;909a	c9 	.  
909b			l909bh: 
909b 22 1f 1d			ld (01d1fh),hl		;909b	22 1f 1d 	" . .  
909e 54				ld d,h			;909e	54 	T  
909f 5d				ld e,l			;909f	5d 	]  
90a0			l90a0h: 
90a0 23				inc hl			;90a0	23 	#  
90a1 78				ld a,b			;90a1	78 	x  
90a2 b1				or c			;90a2	b1 	.  
90a3 20 02			jr nz,l90a7h		;90a3	20 02 	  .  
90a5 37				scf			;90a5	37 	7  
90a6 c9				ret			;90a6	c9 	.  
90a7			l90a7h: 
90a7 7e				ld a,(hl)			;90a7	7e 	~  
90a8 fe 80			cp 080h		;90a8	fe 80 	. .  
90aa 0b				dec bc			;90aa	0b 	.  
90ab 20 f3			jr nz,l90a0h		;90ab	20 f3 	  .  
90ad 22 21 1d			ld (01d21h),hl		;90ad	22 21 1d 	" ! .  
90b0 cd 8b 1a			call 01a8bh		;90b0	cd 8b 1a 	. . .  
90b3 0b				dec bc			;90b3	0b 	.  
90b4 ed 43 1b 1d		ld (01d1bh),bc		;90b4	ed 43 1b 1d 	. C . .  
90b8 c9				ret			;90b8	c9 	.  
90b9 2a 1b 1d			ld hl,(01d1bh)		;90b9	2a 1b 1d 	* . .  
90bc 01 32 00			ld bc,00032h		;90bc	01 32 00 	. 2 .  
90bf 7c				ld a,h			;90bf	7c 	|  
90c0 b5				or l			;90c0	b5 	.  
90c1 c8				ret z			;90c1	c8 	.  
90c2 ed 42			sbc hl,bc		;90c2	ed 42 	. B  
90c4 38 10			jr c,l90d6h		;90c4	38 10 	8 .  
90c6 ed 43 1d 1d		ld (01d1dh),bc		;90c6	ed 43 1d 1d 	. C . .  
90ca 22 1b 1d			ld (01d1bh),hl		;90ca	22 1b 1d 	" . .  
90cd			l90cdh: 
90cd 11 23 1d			ld de,01d23h		;90cd	11 23 1d 	. # .  
90d0 2a 1f 1d			ld hl,(01d1fh)		;90d0	2a 1f 1d 	* . .  
90d3 23				inc hl			;90d3	23 	#  
90d4 b7				or a			;90d4	b7 	.  
90d5 c9				ret			;90d5	c9 	.  
90d6			l90d6h: 
90d6 ed 4b 1b 1d		ld bc,(01d1bh)		;90d6	ed 4b 1b 1d 	. K . .  
90da ed 43 1d 1d		ld (01d1dh),bc		;90da	ed 43 1d 1d 	. C . .  
90de 21 00 00			ld hl,00000h		;90de	21 00 00 	! . .  
90e1 22 1b 1d			ld (01d1bh),hl		;90e1	22 1b 1d 	" . .  
90e4 18 e7			jr l90cdh		;90e4	18 e7 	. .  
90e6 cd 72 1a			call 01a72h		;90e6	cd 72 1a 	. r .  
90e9 2a 15 1d			ld hl,(01d15h)		;90e9	2a 15 1d 	* . .  
90ec ed 5b 13 1d		ld de,(01d13h)		;90ec	ed 5b 13 1d 	. [ . .  
90f0 cd 8a 11			call 0118ah		;90f0	cd 8a 11 	. . .  
90f3 38 17			jr c,l910ch		;90f3	38 17 	8 .  
90f5 28 34			jr z,l912bh		;90f5	28 34 	( 4  
90f7 23				inc hl			;90f7	23 	#  
90f8 eb				ex de,hl			;90f8	eb 	.  
90f9 2a 15 1d			ld hl,(01d15h)		;90f9	2a 15 1d 	* . .  
90fc cd 8b 1a			call 01a8bh		;90fc	cd 8b 1a 	. . .  
90ff 2a 1f 1d			ld hl,(01d1fh)		;90ff	2a 1f 1d 	* . .  
9102 eb				ex de,hl			;9102	eb 	.  
9103 28 02			jr z,l9107h		;9103	28 02 	( .  
9105 ed b0			ldir		;9105	ed b0 	. .  
9107			l9107h: 
9107 ed 53 15 1d		ld (01d15h),de		;9107	ed 53 15 1d 	. S . .  
910b c9				ret			;910b	c9 	.  
910c			l910ch: 
910c ed 53 d9 1c		ld (01cd9h),de		;910c	ed 53 d9 1c 	. S . .  
9110 2a 19 1d			ld hl,(01d19h)		;9110	2a 19 1d 	* . .  
9113 ed 5b 17 1d		ld de,(01d17h)		;9113	ed 5b 17 1d 	. [ . .  
9117 cd 8a 11			call 0118ah		;9117	cd 8a 11 	. . .  
911a 38 03			jr c,l911fh		;911a	38 03 	8 .  
911c ca c9 10			jp z,010c9h		;911c	ca c9 10 	. . .  
911f			l911fh: 
911f 13				inc de			;911f	13 	.  
9120 ed 53 17 1d		ld (01d17h),de		;9120	ed 53 17 1d 	. S . .  
9124 2a d9 1c			ld hl,(01cd9h)		;9124	2a d9 1c 	* . .  
9127 22 15 1d			ld (01d15h),hl		;9127	22 15 1d 	" . .  
912a c9				ret			;912a	c9 	.  
912b			l912bh: 
912b 2a 19 1d			ld hl,(01d19h)		;912b	2a 19 1d 	* . .  
912e ed 5b 17 1d		ld de,(01d17h)		;912e	ed 5b 17 1d 	. [ . .  
9132 cd 8a 11			call 0118ah		;9132	cd 8a 11 	. . .  
9135 da c9 10			jp c,010c9h		;9135	da c9 10 	. . .  
9138 ca c9 10			jp z,010c9h		;9138	ca c9 10 	. . .  
913b 2a 17 1d			ld hl,(01d17h)		;913b	2a 17 1d 	* . .  
913e eb				ex de,hl			;913e	eb 	.  
913f cd 8b 1a			call 01a8bh		;913f	cd 8b 1a 	. . .  
9142 2b				dec hl			;9142	2b 	+  
9143 ed 5b 21 1d		ld de,(01d21h)		;9143	ed 5b 21 1d 	. [ ! .  
9147 28 02			jr z,l914bh		;9147	28 02 	( .  
9149 ed b8			lddr		;9149	ed b8 	. .  
914b			l914bh: 
914b 13				inc de			;914b	13 	.  
914c ed 53 17 1d		ld (01d17h),de		;914c	ed 53 17 1d 	. S . .  
9150 c9				ret			;9150	c9 	.  
9151 21 69 1d			ld hl,01d69h		;9151	21 69 1d 	! i .  
9154 cd e9 12			call 012e9h		;9154	cd e9 12 	. . .  
9157 11 72 01			ld de,00172h		;9157	11 72 01 	. r .  
915a cd 55 02			call 00255h		;915a	cd 55 02 	. U .  
915d da b6 1b			jp c,01bb6h		;915d	da b6 1b 	. . .  
9160 c9				ret			;9160	c9 	.  
9161 21 69 1d			ld hl,01d69h		;9161	21 69 1d 	! i .  
9164 cd e9 12			call 012e9h		;9164	cd e9 12 	. . .  
9167 e5				push hl			;9167	e5 	.  
9168 21 7d 1d			ld hl,01d7dh		;9168	21 7d 1d 	! } .  
916b cd e9 12			call 012e9h		;916b	cd e9 12 	. . .  
916e c1				pop bc			;916e	c1 	.  
916f 11 6a 01			ld de,0016ah		;916f	11 6a 01 	. j .  
9172 cd 58 02			call 00258h		;9172	cd 58 02 	. X .  
9175 da b6 1b			jp c,01bb6h		;9175	da b6 1b 	. . .  
9178 c9				ret			;9178	c9 	.  
9179 21 00 00			ld hl,00000h		;9179	21 00 00 	! . .  
917c 22 d9 1c			ld (01cd9h),hl		;917c	22 d9 1c 	" . .  
917f cd 74 14			call 01474h		;917f	cd 74 14 	. t .  
9182 21 69 1d			ld hl,01d69h		;9182	21 69 1d 	! i .  
9185 cd e9 12			call 012e9h		;9185	cd e9 12 	. . .  
9188 11 d4 12			ld de,012d4h		;9188	11 d4 12 	. . .  
918b cd 5b 02			call 0025bh		;918b	cd 5b 02 	. [ .  
918e da bb 12			jp c,012bbh		;918e	da bb 12 	. . .  
9191			l9191h: 
9191 e5				push hl			;9191	e5 	.  
9192 d5				push de			;9192	d5 	.  
9193 cd 90 18			call 01890h		;9193	cd 90 18 	. . .  
9196 3e 3a			ld a,03ah		;9196	3e 3a 	> :  
9198 cd 90 18			call 01890h		;9198	cd 90 18 	. . .  
919b 60				ld h,b			;919b	60 	`  
919c 69				ld l,c			;919c	69 	i  
919d 01 08 00			ld bc,00008h		;919d	01 08 00 	. . .  
91a0 cd ee 18			call 018eeh		;91a0	cd ee 18 	. . .  
91a3 3e 20			ld a,020h		;91a3	3e 20 	>    
91a5 cd 90 18			call 01890h		;91a5	cd 90 18 	. . .  
91a8 01 03 00			ld bc,00003h		;91a8	01 03 00 	. . .  
91ab cd ee 18			call 018eeh		;91ab	cd ee 18 	. . .  
91ae 3e 0d			ld a,00dh		;91ae	3e 0d 	> .  
91b0 cd 90 18			call 01890h		;91b0	cd 90 18 	. . .  
91b3 d1				pop de			;91b3	d1 	.  
91b4 e1				pop hl			;91b4	e1 	.  
91b5 cd 5e 02			call 0025eh		;91b5	cd 5e 02 	. ^ .  
91b8 30 d7			jr nc,l9191h		;91b8	30 d7 	0 .  
91ba c9				ret			;91ba	c9 	.  
91bb fe 07			cp 007h		;91bb	fe 07 	. .  
91bd c2 b6 1b			jp nz,01bb6h		;91bd	c2 b6 1b 	. . .  
91c0 21 ca 12			ld hl,012cah		;91c0	21 ca 12 	! . .  
91c3 01 0a 00			ld bc,0000ah		;91c3	01 0a 00 	. . .  
91c6 cd ee 18			call 018eeh		;91c6	cd ee 18 	. . .  
91c9 c9				ret			;91c9	c9 	.  
91ca 4e				ld c,(hl)			;91ca	4e 	N  
91cb 6f				ld l,a			;91cb	6f 	o  
91cc 74				ld (hl),h			;91cc	74 	t  
91cd 20 46			jr nz,$+72		;91cd	20 46 	  F  
91cf 6f				ld l,a			;91cf	6f 	o  
91d0 75				ld (hl),l			;91d0	75 	u  
91d1 6e				ld l,(hl)			;91d1	6e 	n  
91d2 64				ld h,h			;91d2	64 	d  
91d3 0d				dec c			;91d3	0d 	.  
91d4 01 3f 3f			ld bc,03f3fh		;91d4	01 3f 3f 	. ? ?  
91d7 3f				ccf			;91d7	3f 	?  
91d8 2a d9 1c			ld hl,(01cd9h)		;91d8	2a d9 1c 	* . .  
91db 7c				ld a,h			;91db	7c 	|  
91dc b5				or l			;91dc	b5 	.  
91dd 28 05			jr z,l91e4h		;91dd	28 05 	( .  
91df fd cb c6 8e		res 1,(iy-03ah)		;91df	fd cb c6 8e 	. . . .  
91e3 c9				ret			;91e3	c9 	.  
91e4			l91e4h: 
91e4 fd cb c6 ce		set 1,(iy-03ah)		;91e4	fd cb c6 ce 	. . . .  
91e8 c9				ret			;91e8	c9 	.  
91e9 ed 5b d6 1c		ld de,(01cd6h)		;91e9	ed 5b d6 1c 	. [ . .  
91ed e5				push hl			;91ed	e5 	.  
91ee			l91eeh: 
91ee 1a				ld a,(de)			;91ee	1a 	.  
91ef cd 50 1b			call 01b50h		;91ef	cd 50 1b 	. P .  
91f2 13				inc de			;91f2	13 	.  
91f3 fe 20			cp 020h		;91f3	fe 20 	.    
91f5 28 f7			jr z,l91eeh		;91f5	28 f7 	( .  
91f7 fe 3d			cp 03dh		;91f7	fe 3d 	. =  
91f9 20 02			jr nz,l91fdh		;91f9	20 02 	  .  
91fb 3e 1b			ld a,01bh		;91fb	3e 1b 	> .  
91fd			l91fdh: 
91fd 77				ld (hl),a			;91fd	77 	w  
91fe 23				inc hl			;91fe	23 	#  
91ff fe 1b			cp 01bh		;91ff	fe 1b 	. .  
9201 20 eb			jr nz,l91eeh		;9201	20 eb 	  .  
9203 ed 53 d6 1c		ld (01cd6h),de		;9203	ed 53 d6 1c 	. S . .  
9207 e1				pop hl			;9207	e1 	.  
9208 c9				ret			;9208	c9 	.  
9209 cd 62 1a			call 01a62h		;9209	cd 62 1a 	. b .  
920c cd 4e 1a			call 01a4eh		;920c	cd 4e 1a 	. N .  
920f 22 d6 1c			ld (01cd6h),hl		;920f	22 d6 1c 	" . .  
9212 2b				dec hl			;9212	2b 	+  
9213 cd 8b 1a			call 01a8bh		;9213	cd 8b 1a 	. . .  
9216 20 04			jr nz,l921ch		;9216	20 04 	  .  
9218 11 37 14			ld de,01437h		;9218	11 37 14 	. 7 .  
921b 03				inc bc			;921b	03 	.  
921c			l921ch: 
921c ed 43 e3 06		ld (006e3h),bc		;921c	ed 43 e3 06 	. C . .  
9220 d5				push de			;9220	d5 	.  
9221 2a 17 1d			ld hl,(01d17h)		;9221	2a 17 1d 	* . .  
9224 eb				ex de,hl			;9224	eb 	.  
9225 2a 19 1d			ld hl,(01d19h)		;9225	2a 19 1d 	* . .  
9228 cd 8b 1a			call 01a8bh		;9228	cd 8b 1a 	. . .  
922b eb				ex de,hl			;922b	eb 	.  
922c d1				pop de			;922c	d1 	.  
922d			l922dh: 
922d e5				push hl			;922d	e5 	.  
922e d5				push de			;922e	d5 	.  
922f c5				push bc			;922f	c5 	.  
9230			l9230h: 
9230 1a				ld a,(de)			;9230	1a 	.  
9231 fe 1b			cp 01bh		;9231	fe 1b 	. .  
9233 28 0e			jr z,l9243h		;9233	28 0e 	( .  
9235 78				ld a,b			;9235	78 	x  
9236 b1				or c			;9236	b1 	.  
9237 ca 73 0d			jp z,00d73h		;9237	ca 73 0d 	. s .  
923a 1a				ld a,(de)			;923a	1a 	.  
923b be				cp (hl)			;923b	be 	.  
923c 23				inc hl			;923c	23 	#  
923d 13				inc de			;923d	13 	.  
923e 0b				dec bc			;923e	0b 	.  
923f 28 ef			jr z,l9230h		;923f	28 ef 	( .  
9241 18 0c			jr l924fh		;9241	18 0c 	. .  
9243			l9243h: 
9243 eb				ex de,hl			;9243	eb 	.  
9244 2a d9 1c			ld hl,(01cd9h)		;9244	2a d9 1c 	* . .  
9247 2b				dec hl			;9247	2b 	+  
9248 22 d9 1c			ld (01cd9h),hl		;9248	22 d9 1c 	" . .  
924b 7c				ld a,h			;924b	7c 	|  
924c b5				or l			;924c	b5 	.  
924d 28 07			jr z,l9256h		;924d	28 07 	( .  
924f			l924fh: 
924f c1				pop bc			;924f	c1 	.  
9250 d1				pop de			;9250	d1 	.  
9251 e1				pop hl			;9251	e1 	.  
9252 23				inc hl			;9252	23 	#  
9253 0b				dec bc			;9253	0b 	.  
9254 18 d7			jr l922dh		;9254	18 d7 	. .  
9256			l9256h: 
9256 c1				pop bc			;9256	c1 	.  
9257 c1				pop bc			;9257	c1 	.  
9258 c1				pop bc			;9258	c1 	.  
9259 2a 17 1d			ld hl,(01d17h)		;9259	2a 17 1d 	* . .  
925c eb				ex de,hl			;925c	eb 	.  
925d c3 19 14			jp 01419h		;925d	c3 19 14 	. . .  
9260 2a d9 1c			ld hl,(01cd9h)		;9260	2a d9 1c 	* . .  
9263 7c				ld a,h			;9263	7c 	|  
9264 b5				or l			;9264	b5 	.  
9265 28 3d			jr z,l92a4h		;9265	28 3d 	( =  
9267 3a db 1c			ld a,(01cdbh)		;9267	3a db 1c 	: . .  
926a b7				or a			;926a	b7 	.  
926b 20 37			jr nz,l92a4h		;926b	20 37 	  7  
926d 2a 17 1d			ld hl,(01d17h)		;926d	2a 17 1d 	* . .  
9270 eb				ex de,hl			;9270	eb 	.  
9271 2a 19 1d			ld hl,(01d19h)		;9271	2a 19 1d 	* . .  
9274 cd 8b 1a			call 01a8bh		;9274	cd 8b 1a 	. . .  
9277 28 07			jr z,l9280h		;9277	28 07 	( .  
9279 2a d9 1c			ld hl,(01cd9h)		;9279	2a d9 1c 	* . .  
927c eb				ex de,hl			;927c	eb 	.  
927d cd 22 1a			call 01a22h		;927d	cd 22 1a 	. " .  
9280			l9280h: 
9280 3a d8 1c			ld a,(01cd8h)		;9280	3a d8 1c 	: . .  
9283 fe 4b			cp 04bh		;9283	fe 4b 	. K  
9285 ca 20 14			jp z,01420h		;9285	ca 20 14 	.   .  
9288 fe 4c			cp 04ch		;9288	fe 4c 	. L  
928a ca 19 14			jp z,01419h		;928a	ca 19 14 	. . .  
928d fe 53			cp 053h		;928d	fe 53 	. S  
928f ca cd 17			jp z,017cdh		;928f	ca cd 17 	. . .  
9292 fe 54			cp 054h		;9292	fe 54 	. T  
9294 ca e3 17			jp z,017e3h		;9294	ca e3 17 	. . .  
9297 fe 50			cp 050h		;9297	fe 50 	. P  
9299 ca e7 17			jp z,017e7h		;9299	ca e7 17 	. . .  
929c fe 57			cp 057h		;929c	fe 57 	. W  
929e ca fa 17			jp z,017fah		;929e	ca fa 17 	. . .  
92a1 c3 53 0d			jp 00d53h		;92a1	c3 53 0d 	. S .  
92a4			l92a4h: 
92a4 2a 13 1d			ld hl,(01d13h)		;92a4	2a 13 1d 	* . .  
92a7 eb				ex de,hl			;92a7	eb 	.  
92a8 2a 15 1d			ld hl,(01d15h)		;92a8	2a 15 1d 	* . .  
92ab cd 8b 1a			call 01a8bh		;92ab	cd 8b 1a 	. . .  
92ae 28 08			jr z,l92b8h		;92ae	28 08 	( .  
92b0 eb				ex de,hl			;92b0	eb 	.  
92b1 2a d9 1c			ld hl,(01cd9h)		;92b1	2a d9 1c 	* . .  
92b4 eb				ex de,hl			;92b4	eb 	.  
92b5 cd 31 1a			call 01a31h		;92b5	cd 31 1a 	. 1 .  
92b8			l92b8h: 
92b8 3a d8 1c			ld a,(01cd8h)		;92b8	3a d8 1c 	: . .  
92bb fe 4b			cp 04bh		;92bb	fe 4b 	. K  
92bd ca 32 14			jp z,01432h		;92bd	ca 32 14 	. 2 .  
92c0 fe 4c			cp 04ch		;92c0	fe 4c 	. L  
92c2 ca 2b 14			jp z,0142bh		;92c2	ca 2b 14 	. + .  
92c5 fe 53			cp 053h		;92c5	fe 53 	. S  
92c7 ca cd 17			jp z,017cdh		;92c7	ca cd 17 	. . .  
92ca fe 54			cp 054h		;92ca	fe 54 	. T  
92cc ca e3 17			jp z,017e3h		;92cc	ca e3 17 	. . .  
92cf fe 50			cp 050h		;92cf	fe 50 	. P  
92d1 ca e7 17			jp z,017e7h		;92d1	ca e7 17 	. . .  
92d4 fe 57			cp 057h		;92d4	fe 57 	. W  
92d6 ca 0a 18			jp z,0180ah		;92d6	ca 0a 18 	. . .  
92d9 c3 53 0d			jp 00d53h		;92d9	c3 53 0d 	. S .  
92dc 2a d6 1c			ld hl,(01cd6h)		;92dc	2a d6 1c 	* . .  
92df 2b				dec hl			;92df	2b 	+  
92e0 22 d6 1c			ld (01cd6h),hl		;92e0	22 d6 1c 	" . .  
92e3 cd 72 1a			call 01a72h		;92e3	cd 72 1a 	. r .  
92e6 cd 4e 1a			call 01a4eh		;92e6	cd 4e 1a 	. N .  
92e9 22 d6 1c			ld (01cd6h),hl		;92e9	22 d6 1c 	" . .  
92ec 2b				dec hl			;92ec	2b 	+  
92ed cd 8b 1a			call 01a8bh		;92ed	cd 8b 1a 	. . .  
92f0 20 04			jr nz,l92f6h		;92f0	20 04 	  .  
92f2 03				inc bc			;92f2	03 	.  
92f3 11 37 14			ld de,01437h		;92f3	11 37 14 	. 7 .  
92f6			l92f6h: 
92f6 d5				push de			;92f6	d5 	.  
92f7 2a 15 1d			ld hl,(01d15h)		;92f7	2a 15 1d 	* . .  
92fa eb				ex de,hl			;92fa	eb 	.  
92fb 2a 17 1d			ld hl,(01d17h)		;92fb	2a 17 1d 	* . .  
92fe b7				or a			;92fe	b7 	.  
92ff ed 52			sbc hl,de		;92ff	ed 52 	. R  
9301 d1				pop de			;9301	d1 	.  
9302 da 53 0d			jp c,00d53h		;9302	da 53 0d 	. S .  
9305 03				inc bc			;9305	03 	.  
9306 7d				ld a,l			;9306	7d 	}  
9307 91				sub c			;9307	91 	.  
9308 7c				ld a,h			;9308	7c 	|  
9309 98				sbc a,b			;9309	98 	.  
930a da 5b 0d			jp c,00d5bh		;930a	da 5b 0d 	. [ .  
930d 0b				dec bc			;930d	0b 	.  
930e cd a3 1a			call 01aa3h		;930e	cd a3 1a 	. . .  
9311 c9				ret			;9311	c9 	.  
9312 2a 17 1d			ld hl,(01d17h)		;9312	2a 17 1d 	* . .  
9315 eb				ex de,hl			;9315	eb 	.  
9316 2a 19 1d			ld hl,(01d19h)		;9316	2a 19 1d 	* . .  
9319 cd 8b 1a			call 01a8bh		;9319	cd 8b 1a 	. . .  
931c c8				ret z			;931c	c8 	.  
931d cd a3 1a			call 01aa3h		;931d	cd a3 1a 	. . .  
9320 22 17 1d			ld (01d17h),hl		;9320	22 17 1d 	" . .  
9323 c9				ret			;9323	c9 	.  
9324 2a 13 1d			ld hl,(01d13h)		;9324	2a 13 1d 	* . .  
9327 eb				ex de,hl			;9327	eb 	.  
9328 2a 15 1d			ld hl,(01d15h)		;9328	2a 15 1d 	* . .  
932b cd 8b 1a			call 01a8bh		;932b	cd 8b 1a 	. . .  
932e c8				ret z			;932e	c8 	.  
932f cd 93 1a			call 01a93h		;932f	cd 93 1a 	. . .  
9332 eb				ex de,hl			;9332	eb 	.  
9333 22 15 1d			ld (01d15h),hl		;9333	22 15 1d 	" . .  
9336 c9				ret			;9336	c9 	.  
9337 80				add a,b			;9337	80 	.  
9338 1b				dec de			;9338	1b 	.  
9339 cd 85 0c			call 00c85h		;9339	cd 85 0c 	. . .  
933c ca 43 0d			jp z,00d43h		;933c	ca 43 0d 	. C .  
933f fe 49			cp 049h		;933f	fe 49 	. I  
9341 ca 3b 15			jp z,0153bh		;9341	ca 3b 15 	. ; .  
9344 fe 4d			cp 04dh		;9344	fe 4d 	. M  
9346 ca 08 15			jp z,01508h		;9346	ca 08 15 	. . .  
9349 fe 44			cp 044h		;9349	fe 44 	. D  
934b ca 74 14			jp z,01474h		;934b	ca 74 14 	. t .  
934e fe 58			cp 058h		;934e	fe 58 	. X  
9350 ca 4e 15			jp z,0154eh		;9350	ca 4e 15 	. N .  
9353 fe 57			cp 057h		;9353	fe 57 	. W  
9355 ca 97 16			jp z,01697h		;9355	ca 97 16 	. . .  
9358 fe 52			cp 052h		;9358	fe 52 	. R  
935a ca 75 16			jp z,01675h		;935a	ca 75 16 	. u .  
935d fe 46			cp 046h		;935d	fe 46 	. F  
935f ca ba 16			jp z,016bah		;935f	ca ba 16 	. . .  
9362 fe 54			cp 054h		;9362	fe 54 	. T  
9364 ca a2 14			jp z,014a2h		;9364	ca a2 14 	. . .  
9367 fe 4c			cp 04ch		;9367	fe 4c 	. L  
9369 ca d6 14			jp z,014d6h		;9369	ca d6 14 	. . .  
936c fe 42			cp 042h		;936c	fe 42 	. B  
936e ca f6 15			jp z,015f6h		;936e	ca f6 15 	. . .  
9371 c3 43 0d			jp 00d43h		;9371	c3 43 0d 	. C .  
9374 2a d9 1c			ld hl,(01cd9h)		;9374	2a d9 1c 	* . .  
9377 7c				ld a,h			;9377	7c 	|  
9378 b5				or l			;9378	b5 	.  
9379 28 16			jr z,l9391h		;9379	28 16 	( .  
937b f7				rst 30h			;937b	f7 	.  
937c 0d				dec c			;937c	0d 	.  
937d 06 28			ld b,028h		;937d	06 28 	. (  
937f 21 c0 f4			ld hl,0f4c0h		;937f	21 c0 f4 	! . .  
9382 cd 73 1b			call 01b73h		;9382	cd 73 1b 	. s .  
9385			l9385h: 
9385 36 8c			ld (hl),08ch		;9385	36 8c 	6 .  
9387 23				inc hl			;9387	23 	#  
9388 10 fb			djnz l9385h		;9388	10 fb 	. .  
938a f7				rst 30h			;938a	f7 	.  
938b 0c				inc c			;938b	0c 	.  
938c fd cb c6 de		set 3,(iy-03ah)		;938c	fd cb c6 de 	. . . .  
9390 c9				ret			;9390	c9 	.  
9391			l9391h: 
9391 f7				rst 30h			;9391	f7 	.  
9392 0e 21			ld c,021h		;9392	0e 21 	. !  
9394 44				ld b,h			;9394	44 	D  
9395 09				add hl,bc			;9395	09 	.  
9396 22 42 09			ld (00942h),hl		;9396	22 42 09 	" B .  
9399 fd cb c6 9e		res 3,(iy-03ah)		;9399	fd cb c6 9e 	. . . .  
939d fd cb c6 96		res 2,(iy-03ah)		;939d	fd cb c6 96 	. . . .  
93a1 c9				ret			;93a1	c9 	.  
93a2 af				xor a			;93a2	af 	.  
93a3 4f				ld c,a			;93a3	4f 	O  
93a4 47				ld b,a			;93a4	47 	G  
93a5 84				add a,h			;93a5	84 	.  
93a6 20 24			jr nz,l93cch		;93a6	20 24 	  $  
93a8 85				add a,l			;93a8	85 	.  
93a9 28 0c			jr z,l93b7h		;93a9	28 0c 	( .  
93ab 04				inc b			;93ab	04 	.  
93ac cb 1f			rr a		;93ac	cb 1f 	. .  
93ae			l93aeh: 
93ae 28 07			jr z,l93b7h		;93ae	28 07 	( .  
93b0 37				scf			;93b0	37 	7  
93b1 cb 11			rl c		;93b1	cb 11 	. .  
93b3 cb 1f			rr a		;93b3	cb 1f 	. .  
93b5 18 f7			jr l93aeh		;93b5	18 f7 	. .  
93b7			l93b7h: 
93b7 79				ld a,c			;93b7	79 	y  
93b8 e6 07			and 007h		;93b8	e6 07 	. .  
93ba fd 77 b6			ld (iy-04ah),a		;93ba	fd 77 b6 	. w .  
93bd 28 06			jr z,l93c5h		;93bd	28 06 	( .  
93bf			l93bfh: 
93bf 3e 20			ld a,020h		;93bf	3e 20 	>    
93c1			l93c1h: 
93c1 fd 77 b5			ld (iy-04bh),a		;93c1	fd 77 b5 	. w .  
93c4 c9				ret			;93c4	c9 	.  
93c5			l93c5h: 
93c5 80				add a,b			;93c5	80 	.  
93c6 20 f7			jr nz,l93bfh		;93c6	20 f7 	  .  
93c8 3e 02			ld a,002h		;93c8	3e 02 	> .  
93ca 18 f5			jr l93c1h		;93ca	18 f5 	. .  
93cc			l93cch: 
93cc 0d				dec c			;93cc	0d 	.  
93cd 18 e8			jr l93b7h		;93cd	18 e8 	. .  
93cf 2a d9 1c			ld hl,(01cd9h)		;93cf	2a d9 1c 	* . .  
93d2 fd 75 b0			ld (iy-050h),l		;93d2	fd 75 b0 	. u .  
93d5 c9				ret			;93d5	c9 	.  
93d6 2a d9 1c			ld hl,(01cd9h)		;93d6	2a d9 1c 	* . .  
93d9 7c				ld a,h			;93d9	7c 	|  
93da b5				or l			;93da	b5 	.  
93db 28 09			jr z,l93e6h		;93db	28 09 	( .  
93dd 3a db 1c			ld a,(01cdbh)		;93dd	3a db 1c 	: . .  
93e0 b7				or a			;93e0	b7 	.  
93e1 3e 01			ld a,001h		;93e1	3e 01 	> .  
93e3 28 01			jr z,l93e6h		;93e3	28 01 	( .  
93e5 3c				inc a			;93e5	3c 	<  
93e6			l93e6h: 
93e6 fd 77 b7			ld (iy-049h),a		;93e6	fd 77 b7 	. w .  
93e9 af				xor a			;93e9	af 	.  
93ea fd 77 b8			ld (iy-048h),a		;93ea	fd 77 b8 	. w .  
93ed fd 36 b9 28		ld (iy-047h),028h		;93ed	fd 36 b9 28 	. 6 . (  
93f1			l93f1h: 
93f1 37				scf			;93f1	37 	7  
93f2 cb 17			rl a		;93f2	cb 17 	. .  
93f4 cb 3d			srl l		;93f4	cb 3d 	. =  
93f6 20 f9			jr nz,l93f1h		;93f6	20 f9 	  .  
93f8 cb 3f			srl a		;93f8	cb 3f 	. ?  
93fa e6 0f			and 00fh		;93fa	e6 0f 	. .  
93fc 2f				cpl			;93fc	2f 	/  
93fd fd 77 bb			ld (iy-045h),a		;93fd	fd 77 bb 	. w .  
9400 cb 2f			sra a		;9400	cb 2f 	. /  
9402 c6 19			add a,019h		;9402	c6 19 	. .  
9404 fd 77 ba			ld (iy-046h),a		;9404	fd 77 ba 	. w .  
9407 c9				ret			;9407	c9 	.  
9408 cd 62 1a			call 01a62h		;9408	cd 62 1a 	. b .  
940b cd 83 1a			call 01a83h		;940b	cd 83 1a 	. . .  
940e 3e ff			ld a,0ffh		;940e	3e ff 	> .  
9410 32 0f 1d			ld (01d0fh),a		;9410	32 0f 1d 	2 . .  
9413 2a d6 1c			ld hl,(01cd6h)		;9413	2a d6 1c 	* . .  
9416 22 0b 1d			ld (01d0bh),hl		;9416	22 0b 1d 	" . .  
9419 2a d2 1c			ld hl,(01cd2h)		;9419	2a d2 1c 	* . .  
941c 22 0d 1d			ld (01d0dh),hl		;941c	22 0d 1d 	" . .  
941f 3a e4 1c			ld a,(01ce4h)		;941f	3a e4 1c 	: . .  
9422 32 10 1d			ld (01d10h),a		;9422	32 10 1d 	2 . .  
9425 2a 05 1d			ld hl,(01d05h)		;9425	2a 05 1d 	* . .  
9428 22 d6 1c			ld (01cd6h),hl		;9428	22 d6 1c 	" . .  
942b 2a 07 1d			ld hl,(01d07h)		;942b	2a 07 1d 	* . .  
942e 36 1b			ld (hl),01bh		;942e	36 1b 	6 .  
9430 23				inc hl			;9430	23 	#  
9431 22 d2 1c			ld (01cd2h),hl		;9431	22 d2 1c 	" . .  
9434 2a d9 1c			ld hl,(01cd9h)		;9434	2a d9 1c 	* . .  
9437 22 11 1d			ld (01d11h),hl		;9437	22 11 1d 	" . .  
943a c9				ret			;943a	c9 	.  
943b cd 76 1b			call 01b76h		;943b	cd 76 1b 	. v .  
943e fd cb c6 ae		res 5,(iy-03ah)		;943e	fd cb c6 ae 	. . . .  
9442 af				xor a			;9442	af 	.  
9443 fd 77 c5			ld (iy-03bh),a		;9443	fd 77 c5 	. w .  
9446 3d				dec a			;9446	3d 	=  
9447 32 dd 1c			ld (01cddh),a		;9447	32 dd 1c 	2 . .  
944a 32 dc 1c			ld (01cdch),a		;944a	32 dc 1c 	2 . .  
944d c9				ret			;944d	c9 	.  
944e cd 72 1a			call 01a72h		;944e	cd 72 1a 	. r .  
9451 fd cb c6 f6		set 6,(iy-03ah)		;9451	fd cb c6 f6 	. . . .  
9455			l9455h: 
9455 cd 24 14			call 01424h		;9455	cd 24 14 	. $ .  
9458 ed 5b 17 1d		ld de,(01d17h)		;9458	ed 5b 17 1d 	. [ . .  
945c 2a 19 1d			ld hl,(01d19h)		;945c	2a 19 1d 	* . .  
945f cd 8b 1a			call 01a8bh		;945f	cd 8b 1a 	. . .  
9462 28 15			jr z,l9479h		;9462	28 15 	( .  
9464 3a dd 1c			ld a,(01cddh)		;9464	3a dd 1c 	: . .  
9467 b7				or a			;9467	b7 	.  
9468 fa 6b 0d			jp m,00d6bh		;9468	fa 6b 0d 	. k .  
946b 21 ff 7f			ld hl,07fffh		;946b	21 ff 7f 	! .   
946e 22 d9 1c			ld (01cd9h),hl		;946e	22 d9 1c 	" . .  
9471 3e 57			ld a,057h		;9471	3e 57 	> W  
9473 32 d8 1c			ld (01cd8h),a		;9473	32 d8 1c 	2 . .  
9476 cd b6 0c			call 00cb6h		;9476	cd b6 0c 	. . .  
9479			l9479h: 
9479 3a dc 1c			ld a,(01cdch)		;9479	3a dc 1c 	: . .  
947c 3d				dec a			;947c	3d 	=  
947d fa 90 15			jp m,01590h		;947d	fa 90 15 	. . .  
9480 21 01 00			ld hl,00001h		;9480	21 01 00 	! . .  
9483 22 d9 1c			ld (01cd9h),hl		;9483	22 d9 1c 	" . .  
9486 3e 52			ld a,052h		;9486	3e 52 	> R  
9488 32 d8 1c			ld (01cd8h),a		;9488	32 d8 1c 	2 . .  
948b cd b6 0c			call 00cb6h		;948b	cd b6 0c 	. . .  
948e 18 c5			jr l9455h		;948e	18 c5 	. .  
9490 3a dd 1c			ld a,(01cddh)		;9490	3a dd 1c 	: . .  
9493 b7				or a			;9493	b7 	.  
9494 f4 a8 15			call p,015a8h		;9494	f4 a8 15 	. . .  
9497 fd cb c6 66		bit 4,(iy-03ah)		;9497	fd cb c6 66 	. . . f  
949b ca 8b 09			jp z,0098bh		;949b	ca 8b 09 	. . .  
949e cd 43 02			call 00243h		;949e	cd 43 02 	. C .  
94a1 fd cb c5 d6		set 2,(iy-03bh)		;94a1	fd cb c5 d6 	. . . .  
94a5 c3 e9 06			jp 006e9h		;94a5	c3 e9 06 	. . .  
94a8 fd cb c5 4e		bit 1,(iy-03bh)		;94a8	fd cb c5 4e 	. . . N  
94ac 3e 0e			ld a,00eh		;94ac	3e 0e 	> .  
94ae c2 b6 1b			jp nz,01bb6h		;94ae	c2 b6 1b 	. . .  
94b1 dd 2a e7 06		ld ix,(006e7h)		;94b1	dd 2a e7 06 	. * . .  
94b5 cd 52 02			call 00252h		;94b5	cd 52 02 	. R .  
94b8 dc bc 1b			call c,01bbch		;94b8	dc bc 1b 	. . .  
94bb cd bf 15			call 015bfh		;94bb	cd bf 15 	. . .  
94be c9				ret			;94be	c9 	.  
94bf fd cb c5 46		bit 0,(iy-03bh)		;94bf	fd cb c5 46 	. . . F  
94c3 c8				ret z			;94c3	c8 	.  
94c4 fd cb c5 86		res 0,(iy-03bh)		;94c4	fd cb c5 86 	. . . .  
94c8 fd cb c6 ae		res 5,(iy-03ah)		;94c8	fd cb c6 ae 	. . . .  
94cc 21 55 1d			ld hl,01d55h		;94cc	21 55 1d 	! U .  
94cf 11 66 01			ld de,00166h		;94cf	11 66 01 	. f .  
94d2 cd 55 02			call 00255h		;94d2	cd 55 02 	. U .  
94d5 44				ld b,h			;94d5	44 	D  
94d6 4d				ld c,l			;94d6	4d 	M  
94d7 11 62 01			ld de,00162h		;94d7	11 62 01 	. b .  
94da cd 58 02			call 00258h		;94da	cd 58 02 	. X .  
94dd 11 5e 01			ld de,0015eh		;94dd	11 5e 01 	. ^ .  
94e0 cd 58 02			call 00258h		;94e0	cd 58 02 	. X .  
94e3 c9				ret			;94e3	c9 	.  
94e4 04				inc b			;94e4	04 	.  
94e5 24				inc h			;94e5	24 	$  
94e6 24				inc h			;94e6	24 	$  
94e7 24				inc h			;94e7	24 	$  
94e8 04				inc b			;94e8	04 	.  
94e9 42				ld b,d			;94e9	42 	B  
94ea 41				ld b,c			;94ea	41 	A  
94eb 4b				ld c,e			;94eb	4b 	K  
94ec fd 7e c5			ld a,(iy-03bh)		;94ec	fd 7e c5 	. ~ .  
94ef b7				or a			;94ef	b7 	.  
94f0 c8				ret z			;94f0	c8 	.  
94f1 3e 0c			ld a,00ch		;94f1	3e 0c 	> .  
94f3 c3 b6 1b			jp 01bb6h		;94f3	c3 b6 1b 	. . .  
94f6 cd ec 15			call 015ech		;94f6	cd ec 15 	. . .  
94f9 3a dd 1c			ld a,(01cddh)		;94f9	3a dd 1c 	: . .  
94fc b7				or a			;94fc	b7 	.  
94fd fa 05 16			jp m,01605h		;94fd	fa 05 16 	. . .  
9500 3e 0d			ld a,00dh		;9500	3e 0d 	> .  
9502 c3 b6 1b			jp 01bb6h		;9502	c3 b6 1b 	. . .  
9505 cd 72 1a			call 01a72h		;9505	cd 72 1a 	. r .  
9508 21 55 1d			ld hl,01d55h		;9508	21 55 1d 	! U .  
950b cd e9 12			call 012e9h		;950b	cd e9 12 	. . .  
950e 11 e4 15			ld de,015e4h		;950e	11 e4 15 	. . .  
9511 cd 61 02			call 00261h		;9511	cd 61 02 	. a .  
9514 da b6 1b			jp c,01bb6h		;9514	da b6 1b 	. . .  
9517 11 e8 15			ld de,015e8h		;9517	11 e8 15 	. . .  
951a cd 61 02			call 00261h		;951a	cd 61 02 	. a .  
951d da b6 1b			jp c,01bb6h		;951d	da b6 1b 	. . .  
9520 11 62 01			ld de,00162h		;9520	11 62 01 	. b .  
9523 dd 2a e5 06		ld ix,(006e5h)		;9523	dd 2a e5 06 	. * . .  
9527 cd 46 02			call 00246h		;9527	cd 46 02 	. F .  
952a 30 16			jr nc,l9542h		;952a	30 16 	0 .  
952c fd cb c6 6e		bit 5,(iy-03ah)		;952c	fd cb c6 6e 	. . . n  
9530 ca b6 1b			jp z,01bb6h		;9530	ca b6 1b 	. . .  
9533 e5				push hl			;9533	e5 	.  
9534 21 6c 16			ld hl,0166ch		;9534	21 6c 16 	! l .  
9537 01 09 00			ld bc,00009h		;9537	01 09 00 	. . .  
953a cd ee 18			call 018eeh		;953a	cd ee 18 	. . .  
953d e1				pop hl			;953d	e1 	.  
953e 3e 01			ld a,001h		;953e	3e 01 	> .  
9540 18 05			jr l9547h		;9540	18 05 	. .  
9542			l9542h: 
9542 3e 01			ld a,001h		;9542	3e 01 	> .  
9544 32 dc 1c			ld (01cdch),a		;9544	32 dc 1c 	2 . .  
9547			l9547h: 
9547 11 5e 01			ld de,0015eh		;9547	11 5e 01 	. ^ .  
954a cd 55 02			call 00255h		;954a	cd 55 02 	. U .  
954d dd 2a e7 06		ld ix,(006e7h)		;954d	dd 2a e7 06 	. * . .  
9551 cd 4c 02			call 0024ch		;9551	cd 4c 02 	. L .  
9554 da b6 1b			jp c,01bb6h		;9554	da b6 1b 	. . .  
9557 fd cb c5 c6		set 0,(iy-03bh)		;9557	fd cb c5 c6 	. . . .  
955b 3e 01			ld a,001h		;955b	3e 01 	> .  
955d 32 dd 1c			ld (01cddh),a		;955d	32 dd 1c 	2 . .  
9560 3a dc 1c			ld a,(01cdch)		;9560	3a dc 1c 	: . .  
9563 b7				or a			;9563	b7 	.  
9564 f8				ret m			;9564	f8 	.  
9565 fd cb c5 ce		set 1,(iy-03bh)		;9565	fd cb c5 ce 	. . . .  
9569 c3 fc 16			jp 016fch		;9569	c3 fc 16 	. . .  
956c 4e				ld c,(hl)			;956c	4e 	N  
956d 65				ld h,l			;956d	65 	e  
956e 77				ld (hl),a			;956e	77 	w  
956f 20 66			jr nz,l95d7h		;956f	20 66 	  f  
9571 69				ld l,c			;9571	69 	i  
9572 6c				ld l,h			;9572	6c 	l  
9573 65				ld h,l			;9573	65 	e  
9574 0d				dec c			;9574	0d 	.  
9575 fd cb c5 4e		bit 1,(iy-03bh)		;9575	fd cb c5 4e 	. . . N  
9579 3e 0e			ld a,00eh		;9579	3e 0e 	> .  
957b c2 b6 1b			jp nz,01bb6h		;957b	c2 b6 1b 	. . .  
957e 21 69 1d			ld hl,01d69h		;957e	21 69 1d 	! i .  
9581 cd e9 12			call 012e9h		;9581	cd e9 12 	. . .  
9584 11 6a 01			ld de,0016ah		;9584	11 6a 01 	. j .  
9587 dd 2a e5 06		ld ix,(006e5h)		;9587	dd 2a e5 06 	. * . .  
958b cd 46 02			call 00246h		;958b	cd 46 02 	. F .  
958e da b6 1b			jp c,01bb6h		;958e	da b6 1b 	. . .  
9591 3e 01			ld a,001h		;9591	3e 01 	> .  
9593 32 dc 1c			ld (01cdch),a		;9593	32 dc 1c 	2 . .  
9596 c9				ret			;9596	c9 	.  
9597 cd ec 15			call 015ech		;9597	cd ec 15 	. . .  
959a 3a dd 1c			ld a,(01cddh)		;959a	3a dd 1c 	: . .  
959d b7				or a			;959d	b7 	.  
959e f4 ba 16			call p,016bah		;959e	f4 ba 16 	. . .  
95a1 21 69 1d			ld hl,01d69h		;95a1	21 69 1d 	! i .  
95a4 cd e9 12			call 012e9h		;95a4	cd e9 12 	. . .  
95a7 11 6a 01			ld de,0016ah		;95a7	11 6a 01 	. j .  
95aa dd 2a e7 06		ld ix,(006e7h)		;95aa	dd 2a e7 06 	. * . .  
95ae cd 4c 02			call 0024ch		;95ae	cd 4c 02 	. L .  
95b1 da b6 1b			jp c,01bb6h		;95b1	da b6 1b 	. . .  
95b4 3e 01			ld a,001h		;95b4	3e 01 	> .  
95b6 32 dd 1c			ld (01cddh),a		;95b6	32 dd 1c 	2 . .  
95b9 c9				ret			;95b9	c9 	.  
95ba 3a dd 1c			ld a,(01cddh)		;95ba	3a dd 1c 	: . .  
95bd b7				or a			;95bd	b7 	.  
95be fa 6b 0d			jp m,00d6bh		;95be	fa 6b 0d 	. k .  
95c1 cd a8 15			call 015a8h		;95c1	cd a8 15 	. . .  
95c4 3e ff			ld a,0ffh		;95c4	3e ff 	> .  
95c6 32 dd 1c			ld (01cddh),a		;95c6	32 dd 1c 	2 . .  
95c9 c9				ret			;95c9	c9 	.  
95ca cd 72 1a			call 01a72h		;95ca	cd 72 1a 	. r .  
95cd cd 83 1a			call 01a83h		;95cd	cd 83 1a 	. . .  
95d0 2a d6 1c			ld hl,(01cd6h)		;95d0	2a d6 1c 	* . .  
95d3 eb				ex de,hl			;95d3	eb 	.  
95d4 2a d2 1c			ld hl,(01cd2h)		;95d4	2a d2 1c 	* . .  
95d7			l95d7h: 
95d7 22 d6 1c			ld (01cd6h),hl		;95d7	22 d6 1c 	" . .  
95da cd 8b 1a			call 01a8bh		;95da	cd 8b 1a 	. . .  
95dd 2a 05 1d			ld hl,(01d05h)		;95dd	2a 05 1d 	* . .  
95e0 28 16			jr z,l95f8h		;95e0	28 16 	( .  
95e2 d5				push de			;95e2	d5 	.  
95e3 eb				ex de,hl			;95e3	eb 	.  
95e4 2a 09 1d			ld hl,(01d09h)		;95e4	2a 09 1d 	* . .  
95e7 b7				or a			;95e7	b7 	.  
95e8 ed 52			sbc hl,de		;95e8	ed 52 	. R  
95ea ca 5b 0d			jp z,00d5bh		;95ea	ca 5b 0d 	. [ .  
95ed 7d				ld a,l			;95ed	7d 	}  
95ee 91				sub c			;95ee	91 	.  
95ef 7c				ld a,h			;95ef	7c 	|  
95f0 98				sbc a,b			;95f0	98 	.  
95f1 da 5b 0d			jp c,00d5bh		;95f1	da 5b 0d 	. [ .  
95f4 e1				pop hl			;95f4	e1 	.  
95f5 ed b0			ldir		;95f5	ed b0 	. .  
95f7 eb				ex de,hl			;95f7	eb 	.  
95f8			l95f8h: 
95f8 22 07 1d			ld (01d07h),hl		;95f8	22 07 1d 	" . .  
95fb c9				ret			;95fb	c9 	.  
95fc cd 72 1a			call 01a72h		;95fc	cd 72 1a 	. r .  
95ff 3a dc 1c			ld a,(01cdch)		;95ff	3a dc 1c 	: . .  
9602 b7				or a			;9602	b7 	.  
9603 fa 6b 0d			jp m,00d6bh		;9603	fa 6b 0d 	. k .  
9606 ca 63 0d			jp z,00d63h		;9606	ca 63 0d 	. c .  
9609 ed 5b 15 1d		ld de,(01d15h)		;9609	ed 5b 15 1d 	. [ . .  
960d 2a 17 1d			ld hl,(01d17h)		;960d	2a 17 1d 	* . .  
9610 cd 8b 1a			call 01a8bh		;9610	cd 8b 1a 	. . .  
9613 d5				push de			;9613	d5 	.  
9614 c5				push bc			;9614	c5 	.  
9615 e1				pop hl			;9615	e1 	.  
9616 c5				push bc			;9616	c5 	.  
9617 cb 38			srl b		;9617	cb 38 	. 8  
9619 cb 19			rr c		;9619	cb 19 	. .  
961b cb 38			srl b		;961b	cb 38 	. 8  
961d cb 19			rr c		;961d	cb 19 	. .  
961f b7				or a			;961f	b7 	.  
9620 ed 42			sbc hl,bc		;9620	ed 42 	. B  
9622 e5				push hl			;9622	e5 	.  
9623 01 1e 00			ld bc,0001eh		;9623	01 1e 00 	. . .  
9626 ed 42			sbc hl,bc		;9626	ed 42 	. B  
9628 da 5b 0d			jp c,00d5bh		;9628	da 5b 0d 	. [ .  
962b cd 12 14			call 01412h		;962b	cd 12 14 	. . .  
962e 2a 15 1d			ld hl,(01d15h)		;962e	2a 15 1d 	* . .  
9631 c1				pop bc			;9631	c1 	.  
9632 d1				pop de			;9632	d1 	.  
9633 1b				dec de			;9633	1b 	.  
9634 3e 01			ld a,001h		;9634	3e 01 	> .  
9636 b7				or a			;9636	b7 	.  
9637 08				ex af,af'			;9637	08 	.  
9638			l9638h: 
9638 cd 7a 1b			call 01b7ah		;9638	cd 7a 1b 	. z .  
963b 30 05			jr nc,l9642h		;963b	30 05 	0 .  
963d cd a0 17			call 017a0h		;963d	cd a0 17 	. . .  
9640 3e 1a			ld a,01ah		;9640	3e 1a 	> .  
9642			l9642h: 
9642 fe 1a			cp 01ah		;9642	fe 1a 	. .  
9644 28 21			jr z,l9667h		;9644	28 21 	( !  
9646 77				ld (hl),a			;9646	77 	w  
9647 23				inc hl			;9647	23 	#  
9648 22 15 1d			ld (01d15h),hl		;9648	22 15 1d 	" . .  
964b 0b				dec bc			;964b	0b 	.  
964c 1b				dec de			;964c	1b 	.  
964d fe 0c			cp 00ch		;964d	fe 0c 	. .  
964f 28 1e			jr z,l966fh		;964f	28 1e 	( .  
9651 08				ex af,af'			;9651	08 	.  
9652 28 08			jr z,l965ch		;9652	28 08 	( .  
9654 08				ex af,af'			;9654	08 	.  
9655 78				ld a,b			;9655	78 	x  
9656 b1				or c			;9656	b1 	.  
9657 20 df			jr nz,l9638h		;9657	20 df 	  .  
9659 08				ex af,af'			;9659	08 	.  
965a 18 dc			jr l9638h		;965a	18 dc 	. .  
965c			l965ch: 
965c 08				ex af,af'			;965c	08 	.  
965d fe 0d			cp 00dh		;965d	fe 0d 	. .  
965f 28 0e			jr z,l966fh		;965f	28 0e 	( .  
9661 7a				ld a,d			;9661	7a 	z  
9662 b3				or e			;9662	b3 	.  
9663 28 0a			jr z,l966fh		;9663	28 0a 	( .  
9665 18 d1			jr l9638h		;9665	18 d1 	. .  
9667			l9667h: 
9667 af				xor a			;9667	af 	.  
9668 32 dc 1c			ld (01cdch),a		;9668	32 dc 1c 	2 . .  
966b fd cb c5 8e		res 1,(iy-03bh)		;966b	fd cb c5 8e 	. . . .  
966f			l966fh: 
966f d1				pop de			;966f	d1 	.  
9670 cd 2b 14			call 0142bh		;9670	cd 2b 14 	. + .  
9673 3a dc 1c			ld a,(01cdch)		;9673	3a dc 1c 	: . .  
9676 b7				or a			;9676	b7 	.  
9677 c8				ret z			;9677	c8 	.  
9678 3a 0f 1d			ld a,(01d0fh)		;9678	3a 0f 1d 	: . .  
967b 47				ld b,a			;967b	47 	G  
967c 3a e4 1c			ld a,(01ce4h)		;967c	3a e4 1c 	: . .  
967f b0				or b			;967f	b0 	.  
9680 c0				ret nz			;9680	c0 	.  
9681 fd cb c6 76		bit 6,(iy-03ah)		;9681	fd cb c6 76 	. . . v  
9685 c0				ret nz			;9685	c0 	.  
9686 21 93 17			ld hl,01793h		;9686	21 93 17 	! . .  
9689 01 0d 00			ld bc,0000dh		;9689	01 0d 00 	. . .  
968c cd ee 18			call 018eeh		;968c	cd ee 18 	. . .  
968f cd 7f 18			call 0187fh		;968f	cd 7f 18 	.  .  
9692 c9				ret			;9692	c9 	.  
9693 4d				ld c,l			;9693	4d 	M  
9694 6f				ld l,a			;9694	6f 	o  
9695 72				ld (hl),d			;9695	72 	r  
9696 65				ld h,l			;9696	65 	e  
9697 20 6f			jr nz,$+113		;9697	20 6f 	  o  
9699 6e				ld l,(hl)			;9699	6e 	n  
969a 20 49			jr nz,$+75		;969a	20 49 	  I  
969c 6e				ld l,(hl)			;969c	6e 	n  
969d 70				ld (hl),b			;969d	70 	p  
969e 75				ld (hl),l			;969e	75 	u  
969f 74				ld (hl),h			;969f	74 	t  
96a0 e5				push hl			;96a0	e5 	.  
96a1 d5				push de			;96a1	d5 	.  
96a2 c5				push bc			;96a2	c5 	.  
96a3 cd bc 1b			call 01bbch		;96a3	cd bc 1b 	. . .  
96a6 c1				pop bc			;96a6	c1 	.  
96a7 d1				pop de			;96a7	d1 	.  
96a8 e1				pop hl			;96a8	e1 	.  
96a9 c9				ret			;96a9	c9 	.  
96aa cd 72 1a			call 01a72h		;96aa	cd 72 1a 	. r .  
96ad cd 24 14			call 01424h		;96ad	cd 24 14 	. $ .  
96b0 21 ff 7f			ld hl,07fffh		;96b0	21 ff 7f 	! .   
96b3 22 d9 1c			ld (01cd9h),hl		;96b3	22 d9 1c 	" . .  
96b6 3e 57			ld a,057h		;96b6	3e 57 	> W  
96b8 32 d8 1c			ld (01cd8h),a		;96b8	32 d8 1c 	2 . .  
96bb cd b6 0c			call 00cb6h		;96bb	cd b6 0c 	. . .  
96be 21 01 00			ld hl,00001h		;96be	21 01 00 	! . .  
96c1 22 d9 1c			ld (01cd9h),hl		;96c1	22 d9 1c 	" . .  
96c4 3e 52			ld a,052h		;96c4	3e 52 	> R  
96c6 32 d8 1c			ld (01cd8h),a		;96c6	32 d8 1c 	2 . .  
96c9 cd b6 0c			call 00cb6h		;96c9	cd b6 0c 	. . .  
96cc c9				ret			;96cc	c9 	.  
96cd cd 83 1a			call 01a83h		;96cd	cd 83 1a 	. . .  
96d0 c3 da 16			jp 016dah		;96d0	c3 da 16 	. . .  
96d3 cd 72 1a			call 01a72h		;96d3	cd 72 1a 	. r .  
96d6 cd 83 1a			call 01a83h		;96d6	cd 83 1a 	. . .  
96d9 2a 05 1d			ld hl,(01d05h)		;96d9	2a 05 1d 	* . .  
96dc eb				ex de,hl			;96dc	eb 	.  
96dd 2a 07 1d			ld hl,(01d07h)		;96dd	2a 07 1d 	* . .  
96e0 c3 ed 13			jp 013edh		;96e0	c3 ed 13 	. . .  
96e3 cd e9 18			call 018e9h		;96e3	cd e9 18 	. . .  
96e6 c9				ret			;96e6	c9 	.  
96e7 cd 8b 1a			call 01a8bh		;96e7	cd 8b 1a 	. . .  
96ea c8				ret z			;96ea	c8 	.  
96eb eb				ex de,hl			;96eb	eb 	.  
96ec			l96ech: 
96ec 7e				ld a,(hl)			;96ec	7e 	~  
96ed cd 3d 18			call 0183dh		;96ed	cd 3d 18 	. = .  
96f0 cd 00 19			call 01900h		;96f0	cd 00 19 	. . .  
96f3 23				inc hl			;96f3	23 	#  
96f4 0b				dec bc			;96f4	0b 	.  
96f5 78				ld a,b			;96f5	78 	x  
96f6 b1				or c			;96f6	b1 	.  
96f7 20 f3			jr nz,l96ech		;96f7	20 f3 	  .  
96f9 c9				ret			;96f9	c9 	.  
96fa 3a dd 1c			ld a,(01cddh)		;96fa	3a dd 1c 	: . .  
96fd b7				or a			;96fd	b7 	.  
96fe fa 6b 0d			jp m,00d6bh		;96fe	fa 6b 0d 	. k .  
9701 e5				push hl			;9701	e5 	.  
9702 cd 1a 18			call 0181ah		;9702	cd 1a 18 	. . .  
9705 e1				pop hl			;9705	e1 	.  
9706 22 17 1d			ld (01d17h),hl		;9706	22 17 1d 	" . .  
9709 c9				ret			;9709	c9 	.  
970a 3a dd 1c			ld a,(01cddh)		;970a	3a dd 1c 	: . .  
970d b7				or a			;970d	b7 	.  
970e fa 6b 0d			jp m,00d6bh		;970e	fa 6b 0d 	. k .  
9711 d5				push de			;9711	d5 	.  
9712 cd 1a 18			call 0181ah		;9712	cd 1a 18 	. . .  
9715 e1				pop hl			;9715	e1 	.  
9716 22 15 1d			ld (01d15h),hl		;9716	22 15 1d 	" . .  
9719 c9				ret			;9719	c9 	.  
971a cd 8b 1a			call 01a8bh		;971a	cd 8b 1a 	. . .  
971d c8				ret z			;971d	c8 	.  
971e eb				ex de,hl			;971e	eb 	.  
971f			l971fh: 
971f 7e				ld a,(hl)			;971f	7e 	~  
9720 f5				push af			;9720	f5 	.  
9721 23				inc hl			;9721	23 	#  
9722 0b				dec bc			;9722	0b 	.  
9723 fe 80			cp 080h		;9723	fe 80 	. .  
9725 c4 9b 1b			call nz,01b9bh		;9725	c4 9b 1b 	. . .  
9728 f1				pop af			;9728	f1 	.  
9729 fe 0d			cp 00dh		;9729	fe 0d 	. .  
972b 20 05			jr nz,l9732h		;972b	20 05 	  .  
972d 3e 0a			ld a,00ah		;972d	3e 0a 	> .  
972f cd 9b 1b			call 01b9bh		;972f	cd 9b 1b 	. . .  
9732			l9732h: 
9732 78				ld a,b			;9732	78 	x  
9733 b1				or c			;9733	b1 	.  
9734 20 e9			jr nz,l971fh		;9734	20 e9 	  .  
9736 c9				ret			;9736	c9 	.  
9737 cd 39 0e			call 00e39h		;9737	cd 39 0e 	. 9 .  
973a c3 e6 13			jp 013e6h		;973a	c3 e6 13 	. . .  
973d cd 50 1b			call 01b50h		;973d	cd 50 1b 	. P .  
9740 fe 80			cp 080h		;9740	fe 80 	. .  
9742 c8				ret z			;9742	c8 	.  
9743 fe 09			cp 009h		;9743	fe 09 	. .  
9745 28 2a			jr z,l9771h		;9745	28 2a 	( *  
9747 fe 0d			cp 00dh		;9747	fe 0d 	. .  
9749 28 10			jr z,l975bh		;9749	28 10 	( .  
974b fe 1b			cp 01bh		;974b	fe 1b 	. .  
974d 20 02			jr nz,l9751h		;974d	20 02 	  .  
974f 3e 24			ld a,024h		;974f	3e 24 	> $  
9751			l9751h: 
9751 fe 20			cp 020h		;9751	fe 20 	.    
9753 38 11			jr c,l9766h		;9753	38 11 	8 .  
9755			l9755h: 
9755 f7				rst 30h			;9755	f7 	.  
9756 05				dec b			;9756	05 	.  
9757 fd 34 b4			inc (iy-04ch)		;9757	fd 34 b4 	. 4 .  
975a c9				ret			;975a	c9 	.  
975b			l975bh: 
975b f7				rst 30h			;975b	f7 	.  
975c 05				dec b			;975c	05 	.  
975d 3e 0a			ld a,00ah		;975d	3e 0a 	> .  
975f f7				rst 30h			;975f	f7 	.  
9760 05				dec b			;9760	05 	.  
9761 fd 36 b4 00		ld (iy-04ch),000h		;9761	fd 36 b4 00 	. 6 . .  
9765 c9				ret			;9765	c9 	.  
9766			l9766h: 
9766 f5				push af			;9766	f5 	.  
9767 3e 5e			ld a,05eh		;9767	3e 5e 	> ^  
9769 cd 55 18			call 01855h		;9769	cd 55 18 	. U .  
976c f1				pop af			;976c	f1 	.  
976d f6 40			or 040h		;976d	f6 40 	. @  
976f 18 e4			jr l9755h		;976f	18 e4 	. .  
9771			l9771h: 
9771 3e 20			ld a,020h		;9771	3e 20 	>    
9773 cd 55 18			call 01855h		;9773	cd 55 18 	. U .  
9776 fd 7e b4			ld a,(iy-04ch)		;9776	fd 7e b4 	. ~ .  
9779 fd a6 b6			and (iy-04ah)		;9779	fd a6 b6 	. . .  
977c 20 f3			jr nz,l9771h		;977c	20 f3 	  .  
977e c9				ret			;977e	c9 	.  
977f e5				push hl			;977f	e5 	.  
9780 c5				push bc			;9780	c5 	.  
9781 3e 0d			ld a,00dh		;9781	3e 0d 	> .  
9783 cd 90 18			call 01890h		;9783	cd 90 18 	. . .  
9786 fd cb c6 56		bit 2,(iy-03ah)		;9786	fd cb c6 56 	. . . V  
978a c4 85 0a			call nz,00a85h		;978a	c4 85 0a 	. . .  
978d c1				pop bc			;978d	c1 	.  
978e e1				pop hl			;978e	e1 	.  
978f c9				ret			;978f	c9 	.  
9790 f5				push af			;9790	f5 	.  
9791 fd 5e bc			ld e,(iy-044h)		;9791	fd 5e bc 	. ^ .  
9794 fd 36 bf 00		ld (iy-041h),000h		;9794	fd 36 bf 00 	. 6 . .  
9798 fe 0d			cp 00dh		;9798	fe 0d 	. .  
979a 28 26			jr z,l97c2h		;979a	28 26 	( &  
979c fe 09			cp 009h		;979c	fe 09 	. .  
979e 28 3a			jr z,l97dah		;979e	28 3a 	( :  
97a0 fe 1b			cp 01bh		;97a0	fe 1b 	. .  
97a2 28 32			jr z,l97d6h		;97a2	28 32 	( 2  
97a4 fe 80			cp 080h		;97a4	fe 80 	. .  
97a6 28 1f			jr z,$+33		;97a6	28 1f 	( .  
97a8 cd 50 1b			call 01b50h		;97a8	cd 50 1b 	. P .  
97ab fe 20			cp 020h		;97ab	fe 20 	.    
97ad 38 1c			jr c,l97cbh		;97ad	38 1c 	8 .  
97af			l97afh: 
97af f7				rst 30h			;97af	f7 	.  
97b0 01 1c 7b			ld bc,07b1ch		;97b0	01 1c 7b 	. . {  
97b3 fe 28			cp 028h		;97b3	fe 28 	. (  
97b5 38 06			jr c,l97bdh		;97b5	38 06 	8 .  
97b7 d6 28			sub 028h		;97b7	d6 28 	. (  
97b9 fd cb bf fe		set 7,(iy-041h)		;97b9	fd cb bf fe 	. . . .  
97bd			l97bdh: 
97bd fd 77 bc			ld (iy-044h),a		;97bd	fd 77 bc 	. w .  
97c0 f1				pop af			;97c0	f1 	.  
97c1 c9				ret			;97c1	c9 	.  
97c2			l97c2h: 
97c2 f7				rst 30h			;97c2	f7 	.  
97c3 01 af 18			ld bc,018afh		;97c3	01 af 18 	. . .  
97c6 f2 3e 7c			jp p,07c3eh		;97c6	f2 3e 7c 	. > |  
97c9 18 e4			jr l97afh		;97c9	18 e4 	. .  
97cb			l97cbh: 
97cb 3e 5e			ld a,05eh		;97cb	3e 5e 	> ^  
97cd f7				rst 30h			;97cd	f7 	.  
97ce 01 1c f1			ld bc,0f11ch		;97ce	01 1c f1 	. . .  
97d1 f5				push af			;97d1	f5 	.  
97d2 f6 40			or 040h		;97d2	f6 40 	. @  
97d4 18 d9			jr l97afh		;97d4	18 d9 	. .  
97d6			l97d6h: 
97d6 3e 24			ld a,024h		;97d6	3e 24 	> $  
97d8 18 d5			jr l97afh		;97d8	18 d5 	. .  
97da			l97dah: 
97da 3e 20			ld a,020h		;97da	3e 20 	>    
97dc			l97dch: 
97dc f7				rst 30h			;97dc	f7 	.  
97dd 01 1c fd			ld bc,0fd1ch		;97dd	01 1c fd 	. . .  
97e0 7e				ld a,(hl)			;97e0	7e 	~  
97e1 b6				or (hl)			;97e1	b6 	.  
97e2 a3				and e			;97e2	a3 	.  
97e3 28 cd			jr z,$-49		;97e3	28 cd 	( .  
97e5 3e 80			ld a,080h		;97e5	3e 80 	> .  
97e7 18 f3			jr l97dch		;97e7	18 f3 	. .  
97e9 cd 8b 1a			call 01a8bh		;97e9	cd 8b 1a 	. . .  
97ec c8				ret z			;97ec	c8 	.  
97ed eb				ex de,hl			;97ed	eb 	.  
97ee f5				push af			;97ee	f5 	.  
97ef d5				push de			;97ef	d5 	.  
97f0			l97f0h: 
97f0 7e				ld a,(hl)			;97f0	7e 	~  
97f1 cd 90 18			call 01890h		;97f1	cd 90 18 	. . .  
97f4 cd 00 19			call 01900h		;97f4	cd 00 19 	. . .  
97f7 23				inc hl			;97f7	23 	#  
97f8 0b				dec bc			;97f8	0b 	.  
97f9 78				ld a,b			;97f9	78 	x  
97fa b1				or c			;97fa	b1 	.  
97fb 20 f3			jr nz,l97f0h		;97fb	20 f3 	  .  
97fd d1				pop de			;97fd	d1 	.  
97fe f1				pop af			;97fe	f1 	.  
97ff c9				ret			;97ff	c9 	.  
9800 f7				rst 30h			;9800	f7 	.  
9801 1e c8			ld e,0c8h		;9801	1e c8 	. .  
9803 f7				rst 30h			;9803	f7 	.  
9804 1d				dec e			;9804	1d 	.  
9805 fe 0d			cp 00dh		;9805	fe 0d 	. .  
9807 c8				ret z			;9807	c8 	.  
9808 fe 20			cp 020h		;9808	fe 20 	.    
980a d0				ret nc			;980a	d0 	.  
980b cd 7f 18			call 0187fh		;980b	cd 7f 18 	.  .  
980e c3 a1 0a			jp 00aa1h		;980e	c3 a1 0a 	. . .  
9811 d9				exx			;9811	d9 	.  
9812 fd 4e bc			ld c,(iy-044h)		;9812	fd 4e bc 	. N .  
9815 06 00			ld b,000h		;9815	06 00 	. .  
9817 2a dd 06			ld hl,(006ddh)		;9817	2a dd 06 	* . .  
981a 09				add hl,bc			;981a	09 	.  
981b cd 9b 19			call 0199bh		;981b	cd 9b 19 	. . .  
981e d9				exx			;981e	d9 	.  
981f			l981fh: 
981f 1a				ld a,(de)			;981f	1a 	.  
9820 13				inc de			;9820	13 	.  
9821 0b				dec bc			;9821	0b 	.  
9822 d9				exx			;9822	d9 	.  
9823 fe 80			cp 080h		;9823	fe 80 	. .  
9825 20 02			jr nz,l9829h		;9825	20 02 	  .  
9827 3e 7c			ld a,07ch		;9827	3e 7c 	> |  
9829			l9829h: 
9829 fe 20			cp 020h		;9829	fe 20 	.    
982b 38 0d			jr c,l983ah		;982b	38 0d 	8 .  
982d			l982dh: 
982d cd 94 19			call 01994h		;982d	cd 94 19 	. . .  
9830			l9830h: 
9830 d9				exx			;9830	d9 	.  
9831 78				ld a,b			;9831	78 	x  
9832 b1				or c			;9832	b1 	.  
9833 20 ea			jr nz,l981fh		;9833	20 ea 	  .  
9835 d9				exx			;9835	d9 	.  
9836 fd 71 bc			ld (iy-044h),c		;9836	fd 71 bc 	. q .  
9839 c9				ret			;9839	c9 	.  
983a			l983ah: 
983a fe 09			cp 009h		;983a	fe 09 	. .  
983c 28 1f			jr z,l985dh		;983c	28 1f 	( .  
983e b7				or a			;983e	b7 	.  
983f 28 ec			jr z,l982dh		;983f	28 ec 	( .  
9841 fe 1b			cp 01bh		;9841	fe 1b 	. .  
9843 28 14			jr z,l9859h		;9843	28 14 	( .  
9845 fe 0d			cp 00dh		;9845	fe 0d 	. .  
9847 28 21			jr z,l986ah		;9847	28 21 	( !  
9849 f5				push af			;9849	f5 	.  
984a 3e 5e			ld a,05eh		;984a	3e 5e 	> ^  
984c cd 94 19			call 01994h		;984c	cd 94 19 	. . .  
984f f1				pop af			;984f	f1 	.  
9850 f6 40			or 040h		;9850	f6 40 	. @  
9852 fe 4f			cp 04fh		;9852	fe 4f 	. O  
9854 20 d7			jr nz,l982dh		;9854	20 d7 	  .  
9856 af				xor a			;9856	af 	.  
9857 18 d4			jr l982dh		;9857	18 d4 	. .  
9859			l9859h: 
9859 3e 24			ld a,024h		;9859	3e 24 	> $  
985b 18 d0			jr l982dh		;985b	18 d0 	. .  
985d			l985dh: 
985d fd 7e b5			ld a,(iy-04bh)		;985d	fd 7e b5 	. ~ .  
9860 cd 94 19			call 01994h		;9860	cd 94 19 	. . .  
9863 fd a6 b6			and (iy-04ah)		;9863	fd a6 b6 	. . .  
9866 28 c8			jr z,l9830h		;9866	28 c8 	( .  
9868 18 f3			jr l985dh		;9868	18 f3 	. .  
986a			l986ah: 
986a fd cb b7 46		bit 0,(iy-049h)		;986a	fd cb b7 46 	. . . F  
986e 20 18			jr nz,l9888h		;986e	20 18 	  .  
9870			l9870h: 
9870 3e 80			ld a,080h		;9870	3e 80 	> .  
9872 77				ld (hl),a			;9872	77 	w  
9873 23				inc hl			;9873	23 	#  
9874 0c				inc c			;9874	0c 	.  
9875 79				ld a,c			;9875	79 	y  
9876 fd be b9			cp (iy-047h)		;9876	fd be b9 	. . .  
9879 38 f5			jr c,l9870h		;9879	38 f5 	8 .  
987b cd c2 19			call 019c2h		;987b	cd c2 19 	. . .  
987e d0				ret nc			;987e	d0 	.  
987f d9				exx			;987f	d9 	.  
9880			l9880h: 
9880 2a dd 06			ld hl,(006ddh)		;9880	2a dd 06 	* . .  
9883 01 00 00			ld bc,00000h		;9883	01 00 00 	. . .  
9886 18 a8			jr l9830h		;9886	18 a8 	. .  
9888			l9888h: 
9888 fd cb c3 7e		bit 7,(iy-03dh)		;9888	fd cb c3 7e 	. . . ~  
988c 28 e2			jr z,l9870h		;988c	28 e2 	( .  
988e fd cb c3 be		res 7,(iy-03dh)		;988e	fd cb c3 be 	. . . .  
9892 18 ec			jr l9880h		;9892	18 ec 	. .  
9894 77				ld (hl),a			;9894	77 	w  
9895 fd cb c3 be		res 7,(iy-03dh)		;9895	fd cb c3 be 	. . . .  
9899 23				inc hl			;9899	23 	#  
989a 0c				inc c			;989a	0c 	.  
989b 79				ld a,c			;989b	79 	y  
989c fe 28			cp 028h		;989c	fe 28 	. (  
989e d8				ret c			;989e	d8 	.  
989f fd cb b7 46		bit 0,(iy-049h)		;989f	fd cb b7 46 	. . . F  
98a3 20 06			jr nz,l98abh		;98a3	20 06 	  .  
98a5 fe f8			cp 0f8h		;98a5	fe f8 	. .  
98a7 c0				ret nz			;98a7	c0 	.  
98a8 0d				dec c			;98a8	0d 	.  
98a9 2b				dec hl			;98a9	2b 	+  
98aa c9				ret			;98aa	c9 	.  
98ab			l98abh: 
98ab cd c2 19			call 019c2h		;98ab	cd c2 19 	. . .  
98ae d9				exx			;98ae	d9 	.  
98af 30 0f			jr nc,l98c0h		;98af	30 0f 	0 .  
98b1 2a dd 06			ld hl,(006ddh)		;98b1	2a dd 06 	* . .  
98b4 36 0d			ld (hl),00dh		;98b4	36 0d 	6 .  
98b6 af				xor a			;98b6	af 	.  
98b7 47				ld b,a			;98b7	47 	G  
98b8 0e 01			ld c,001h		;98b8	0e 01 	. .  
98ba 23				inc hl			;98ba	23 	#  
98bb fd cb c3 fe		set 7,(iy-03dh)		;98bb	fd cb c3 fe 	. . . .  
98bf c9				ret			;98bf	c9 	.  
98c0			l98c0h: 
98c0 d1				pop de			;98c0	d1 	.  
98c1 c9				ret			;98c1	c9 	.  
98c2 d9				exx			;98c2	d9 	.  
98c3 d5				push de			;98c3	d5 	.  
98c4 c5				push bc			;98c4	c5 	.  
98c5 21 fe fb			ld hl,0fbfeh		;98c5	21 fe fb 	! . .  
98c8 d9				exx			;98c8	d9 	.  
98c9 ed 5b df 1c		ld de,(01cdfh)		;98c9	ed 5b df 1c 	. [ . .  
98cd 2a dd 06			ld hl,(006ddh)		;98cd	2a dd 06 	* . .  
98d0 06 00			ld b,000h		;98d0	06 00 	. .  
98d2 fd 4e b8			ld c,(iy-048h)		;98d2	fd 4e b8 	. N .  
98d5 09				add hl,bc			;98d5	09 	.  
98d6 0e 28			ld c,028h		;98d6	0e 28 	. (  
98d8			l98d8h: 
98d8 d9				exx			;98d8	d9 	.  
98d9 cb 76			bit 6,(hl)		;98d9	cb 76 	. v  
98db 20 33			jr nz,l9910h		;98db	20 33 	  3  
98dd d9				exx			;98dd	d9 	.  
98de c5				push bc			;98de	c5 	.  
98df 46				ld b,(hl)			;98df	46 	F  
98e0 e5				push hl			;98e0	e5 	.  
98e1 21 fc fb			ld hl,0fbfch		;98e1	21 fc fb 	! . .  
98e4 3a 03 ff			ld a,(0ff03h)		;98e4	3a 03 ff 	: . .  
98e7 4f				ld c,a			;98e7	4f 	O  
98e8 78				ld a,b			;98e8	78 	x  
98e9 41				ld b,c			;98e9	41 	A  
98ea cb d0			set 2,b		;98ea	cb d0 	. .  
98ec d9				exx			;98ec	d9 	.  
98ed			l98edh: 
98ed cb 7e			bit 7,(hl)		;98ed	cb 7e 	. ~  
98ef 20 fc			jr nz,l98edh		;98ef	20 fc 	  .  
98f1			l98f1h: 
98f1 cb 7e			bit 7,(hl)		;98f1	cb 7e 	. ~  
98f3 28 fc			jr z,l98f1h		;98f3	28 fc 	( .  
98f5 d9				exx			;98f5	d9 	.  
98f6 70				ld (hl),b			;98f6	70 	p  
98f7 12				ld (de),a			;98f7	12 	.  
98f8 71				ld (hl),c			;98f8	71 	q  
98f9 e1				pop hl			;98f9	e1 	.  
98fa c1				pop bc			;98fa	c1 	.  
98fb 23				inc hl			;98fb	23 	#  
98fc 13				inc de			;98fc	13 	.  
98fd 0d				dec c			;98fd	0d 	.  
98fe 20 d8			jr nz,l98d8h		;98fe	20 d8 	  .  
9900			l9900h: 
9900 21 18 00			ld hl,00018h		;9900	21 18 00 	! . .  
9903 19				add hl,de			;9903	19 	.  
9904 22 df 1c			ld (01cdfh),hl		;9904	22 df 1c 	" . .  
9907 11 60 f4			ld de,0f460h		;9907	11 60 f4 	. ` .  
990a ed 52			sbc hl,de		;990a	ed 52 	. R  
990c d9				exx			;990c	d9 	.  
990d c1				pop bc			;990d	c1 	.  
990e d1				pop de			;990e	d1 	.  
990f c9				ret			;990f	c9 	.  
9910			l9910h: 
9910 2b				dec hl			;9910	2b 	+  
9911 2b				dec hl			;9911	2b 	+  
9912 3a 03 ff			ld a,(0ff03h)		;9912	3a 03 ff 	: . .  
9915 cb d7			set 2,a		;9915	cb d7 	. .  
9917 77				ld (hl),a			;9917	77 	w  
9918 d9				exx			;9918	d9 	.  
9919 ed b0			ldir		;9919	ed b0 	. .  
991b d9				exx			;991b	d9 	.  
991c cb 97			res 2,a		;991c	cb 97 	. .  
991e 77				ld (hl),a			;991e	77 	w  
991f d9				exx			;991f	d9 	.  
9920 18 de			jr l9900h		;9920	18 de 	. .  
9922 e5				push hl			;9922	e5 	.  
9923			l9923h: 
9923 3e 0d			ld a,00dh		;9923	3e 0d 	> .  
9925 ed b1			cpir		;9925	ed b1 	. .  
9927 e2 2f 1a			jp po,01a2fh		;9927	e2 2f 1a 	. / .  
992a 1b				dec de			;992a	1b 	.  
992b 7a				ld a,d			;992b	7a 	z  
992c b3				or e			;992c	b3 	.  
992d 20 f4			jr nz,l9923h		;992d	20 f4 	  .  
992f d1				pop de			;992f	d1 	.  
9930 c9				ret			;9930	c9 	.  
9931 13				inc de			;9931	13 	.  
9932 e5				push hl			;9932	e5 	.  
9933 2b				dec hl			;9933	2b 	+  
9934			l9934h: 
9934 3e 0d			ld a,00dh		;9934	3e 0d 	> .  
9936 ed b9			cpdr		;9936	ed b9 	. .  
9938 e2 45 1a			jp po,01a45h		;9938	e2 45 1a 	. E .  
993b 1b				dec de			;993b	1b 	.  
993c 7a				ld a,d			;993c	7a 	z  
993d b3				or e			;993d	b3 	.  
993e 20 f4			jr nz,l9934h		;993e	20 f4 	  .  
9940			l9940h: 
9940 23				inc hl			;9940	23 	#  
9941			l9941h: 
9941 23				inc hl			;9941	23 	#  
9942 eb				ex de,hl			;9942	eb 	.  
9943 e1				pop hl			;9943	e1 	.  
9944 c9				ret			;9944	c9 	.  
9945 20 fa			jr nz,l9941h		;9945	20 fa 	  .  
9947 1b				dec de			;9947	1b 	.  
9948 7a				ld a,d			;9948	7a 	z  
9949 b3				or e			;9949	b3 	.  
994a 28 f4			jr z,l9940h		;994a	28 f4 	( .  
994c 18 f3			jr l9941h		;994c	18 f3 	. .  
994e 2a d6 1c			ld hl,(01cd6h)		;994e	2a d6 1c 	* . .  
9951 eb				ex de,hl			;9951	eb 	.  
9952 2a d2 1c			ld hl,(01cd2h)		;9952	2a d2 1c 	* . .  
9955 cd 8b 1a			call 01a8bh		;9955	cd 8b 1a 	. . .  
9958 ca 53 0d			jp z,00d53h		;9958	ca 53 0d 	. S .  
995b 62				ld h,d			;995b	62 	b  
995c 6b				ld l,e			;995c	6b 	k  
995d 3e 1b			ld a,01bh		;995d	3e 1b 	> .  
995f ed b1			cpir		;995f	ed b1 	. .  
9961 c9				ret			;9961	c9 	.  
9962 2a d9 1c			ld hl,(01cd9h)		;9962	2a d9 1c 	* . .  
9965 7c				ld a,h			;9965	7c 	|  
9966 b5				or l			;9966	b5 	.  
9967 ca 3b 0d			jp z,00d3bh		;9967	ca 3b 0d 	. ; .  
996a 3a db 1c			ld a,(01cdbh)		;996a	3a db 1c 	: . .  
996d b7				or a			;996d	b7 	.  
996e c2 3b 0d			jp nz,00d3bh		;996e	c2 3b 0d 	. ; .  
9971 c9				ret			;9971	c9 	.  
9972 2a d9 1c			ld hl,(01cd9h)		;9972	2a d9 1c 	* . .  
9975 2b				dec hl			;9975	2b 	+  
9976 7c				ld a,h			;9976	7c 	|  
9977 b5				or l			;9977	b5 	.  
9978 c2 3b 0d			jp nz,00d3bh		;9978	c2 3b 0d 	. ; .  
997b 3a db 1c			ld a,(01cdbh)		;997b	3a db 1c 	: . .  
997e b7				or a			;997e	b7 	.  
997f c2 3b 0d			jp nz,00d3bh		;997f	c2 3b 0d 	. ; .  
9982 c9				ret			;9982	c9 	.  
9983 3a 0f 1d			ld a,(01d0fh)		;9983	3a 0f 1d 	: . .  
9986 b7				or a			;9986	b7 	.  
9987 c2 43 0d			jp nz,00d43h		;9987	c2 43 0d 	. C .  
998a c9				ret			;998a	c9 	.  
998b 7d				ld a,l			;998b	7d 	}  
998c 93				sub e			;998c	93 	.  
998d 4f				ld c,a			;998d	4f 	O  
998e 7c				ld a,h			;998e	7c 	|  
998f 9a				sbc a,d			;998f	9a 	.  
9990 47				ld b,a			;9990	47 	G  
9991 b1				or c			;9991	b1 	.  
9992 c9				ret			;9992	c9 	.  
9993 eb				ex de,hl			;9993	eb 	.  
9994 2a 17 1d			ld hl,(01d17h)		;9994	2a 17 1d 	* . .  
9997 eb				ex de,hl			;9997	eb 	.  
9998 1b				dec de			;9998	1b 	.  
9999 2b				dec hl			;9999	2b 	+  
999a ed b8			lddr		;999a	ed b8 	. .  
999c 23				inc hl			;999c	23 	#  
999d 13				inc de			;999d	13 	.  
999e eb				ex de,hl			;999e	eb 	.  
999f 22 17 1d			ld (01d17h),hl		;999f	22 17 1d 	" . .  
99a2 c9				ret			;99a2	c9 	.  
99a3 2a 15 1d			ld hl,(01d15h)		;99a3	2a 15 1d 	* . .  
99a6 eb				ex de,hl			;99a6	eb 	.  
99a7 ed b0			ldir		;99a7	ed b0 	. .  
99a9 eb				ex de,hl			;99a9	eb 	.  
99aa 22 15 1d			ld (01d15h),hl		;99aa	22 15 1d 	" . .  
99ad eb				ex de,hl			;99ad	eb 	.  
99ae c9				ret			;99ae	c9 	.  
99af 4f				ld c,a			;99af	4f 	O  
99b0 4b				ld c,e			;99b0	4b 	K  
99b1 0d				dec c			;99b1	0d 	.  
99b2 4e				ld c,(hl)			;99b2	4e 	N  
99b3 6f				ld l,a			;99b3	6f 	o  
99b4 74				ld (hl),h			;99b4	74 	t  
99b5 20 65			jr nz,l9a1ch		;99b5	20 65 	  e  
99b7 6e				ld l,(hl)			;99b7	6e 	n  
99b8 6f				ld l,a			;99b8	6f 	o  
99b9 75				ld (hl),l			;99b9	75 	u  
99ba 67				ld h,a			;99ba	67 	g  
99bb 68				ld l,b			;99bb	68 	h  
99bc 20 6d			jr nz,l9a2bh		;99bc	20 6d 	  m  
99be 65				ld h,l			;99be	65 	e  
99bf 6d				ld l,l			;99bf	6d 	m  
99c0 6f				ld l,a			;99c0	6f 	o  
99c1 72				ld (hl),d			;99c1	72 	r  
99c2 79				ld a,c			;99c2	79 	y  
99c3 0d				dec c			;99c3	0d 	.  
99c4 21 0d 3f			ld hl,03f0dh		;99c4	21 0d 3f 	! . ?  
99c7 42				ld b,d			;99c7	42 	B  
99c8 61				ld h,c			;99c8	61 	a  
99c9 64				ld h,h			;99c9	64 	d  
99ca 20 61			jr nz,l9a2dh		;99ca	20 61 	  a  
99cc 72				ld (hl),d			;99cc	72 	r  
99cd 67				ld h,a			;99cd	67 	g  
99ce 75				ld (hl),l			;99ce	75 	u  
99cf 6d				ld l,l			;99cf	6d 	m  
99d0 65				ld h,l			;99d0	65 	e  
99d1 6e				ld l,(hl)			;99d1	6e 	n  
99d2 74				ld (hl),h			;99d2	74 	t  
99d3 3f				ccf			;99d3	3f 	?  
99d4 42				ld b,d			;99d4	42 	B  
99d5 61				ld h,c			;99d5	61 	a  
99d6 64				ld h,h			;99d6	64 	d  
99d7 20 63			jr nz,l9a3ch		;99d7	20 63 	  c  
99d9 6f				ld l,a			;99d9	6f 	o  
99da 6d				ld l,l			;99da	6d 	m  
99db 6d				ld l,l			;99db	6d 	m  
99dc 61				ld h,c			;99dc	61 	a  
99dd 6e				ld l,(hl)			;99dd	6e 	n  
99de 64				ld h,h			;99de	64 	d  
99df 3f				ccf			;99df	3f 	?  
99e0 45				ld b,l			;99e0	45 	E  
99e1 72				ld (hl),d			;99e1	72 	r  
99e2 72				ld (hl),d			;99e2	72 	r  
99e3 6f				ld l,a			;99e3	6f 	o  
99e4 72				ld (hl),d			;99e4	72 	r  
99e5 20 69			jr nz,l9a50h		;99e5	20 69 	  i  
99e7 6e				ld l,(hl)			;99e7	6e 	n  
99e8 20 45			jr nz,l9a2fh		;99e8	20 45 	  E  
99ea 64				ld h,h			;99ea	64 	d  
99eb 69				ld l,c			;99eb	69 	i  
99ec 74				ld (hl),h			;99ec	74 	t  
99ed 6f				ld l,a			;99ed	6f 	o  
99ee 72				ld (hl),d			;99ee	72 	r  
99ef 3f				ccf			;99ef	3f 	?  
99f0 49				ld c,c			;99f0	49 	I  
99f1 74				ld (hl),h			;99f1	74 	t  
99f2 65				ld h,l			;99f2	65 	e  
99f3 72				ld (hl),d			;99f3	72 	r  
99f4 61				ld h,c			;99f4	61 	a  
99f5 74				ld (hl),h			;99f5	74 	t  
99f6 69				ld l,c			;99f6	69 	i  
99f7 6f				ld l,a			;99f7	6f 	o  
99f8 6e				ld l,(hl)			;99f8	6e 	n  
99f9 20 66			jr nz,l9a61h		;99f9	20 66 	  f  
99fb 61				ld h,c			;99fb	61 	a  
99fc 75				ld (hl),l			;99fc	75 	u  
99fd 6c				ld l,h			;99fd	6c 	l  
99fe 74				ld (hl),h			;99fe	74 	t  
99ff 3f				ccf			;99ff	3f 	?  
9a00 4e				ld c,(hl)			;9a00	4e 	N  
9a01 6f				ld l,a			;9a01	6f 	o  
9a02 20 72			jr nz,l9a76h		;9a02	20 72 	  r  
9a04 6f				ld l,a			;9a04	6f 	o  
9a05 6f				ld l,a			;9a05	6f 	o  
9a06 6d				ld l,l			;9a06	6d 	m  
9a07 3f				ccf			;9a07	3f 	?  
9a08 45				ld b,l			;9a08	45 	E  
9a09 6e				ld l,(hl)			;9a09	6e 	n  
9a0a 64				ld h,h			;9a0a	64 	d  
9a0b 20 6f			jr nz,$+113		;9a0b	20 6f 	  o  
9a0d 66				ld h,(hl)			;9a0d	66 	f  
9a0e 20 66			jr nz,l9a76h		;9a0e	20 66 	  f  
9a10 69				ld l,c			;9a10	69 	i  
9a11 6c				ld l,h			;9a11	6c 	l  
9a12 65				ld h,l			;9a12	65 	e  
9a13 3f				ccf			;9a13	3f 	?  
9a14 4e				ld c,(hl)			;9a14	4e 	N  
9a15 6f				ld l,a			;9a15	6f 	o  
9a16 20 66			jr nz,l9a7eh		;9a16	20 66 	  f  
9a18 69				ld l,c			;9a18	69 	i  
9a19 6c				ld l,h			;9a19	6c 	l  
9a1a 65				ld h,l			;9a1a	65 	e  
9a1b 3f				ccf			;9a1b	3f 	?  
9a1c			l9a1ch: 
9a1c 43				ld b,e			;9a1c	43 	C  
9a1d 61				ld h,c			;9a1d	61 	a  
9a1e 6e				ld l,(hl)			;9a1e	6e 	n  
9a1f 27				daa			;9a1f	27 	'  
9a20 74				ld (hl),h			;9a20	74 	t  
9a21 20 66			jr nz,l9a89h		;9a21	20 66 	  f  
9a23 69				ld l,c			;9a23	69 	i  
9a24 6e				ld l,(hl)			;9a24	6e 	n  
9a25 64				ld h,h			;9a25	64 	d  
9a26 20 69			jr nz,$+107		;9a26	20 69 	  i  
9a28 6e				ld l,(hl)			;9a28	6e 	n  
9a29 20 6d			jr nz,$+111		;9a29	20 6d 	  m  
9a2b			l9a2bh: 
9a2b 61				ld h,c			;9a2b	61 	a  
9a2c 63				ld h,e			;9a2c	63 	c  
9a2d			l9a2dh: 
9a2d 72				ld (hl),d			;9a2d	72 	r  
9a2e 6f				ld l,a			;9a2e	6f 	o  
9a2f			l9a2fh: 
9a2f 3f				ccf			;9a2f	3f 	?  
9a30			l9a30h: 
9a30 20 fe			jr nz,l9a30h		;9a30	20 fe 	  .  
9a32 4f				ld c,a			;9a32	4f 	O  
9a33 20 01			jr nz,l9a36h		;9a33	20 01 	  .  
9a35 af				xor a			;9a35	af 	.  
9a36			l9a36h: 
9a36 fe 1f			cp 01fh		;9a36	fe 1f 	. .  
9a38 20 02			jr nz,l9a3ch		;9a38	20 02 	  .  
9a3a 3e 7f			ld a,07fh		;9a3a	3e 7f 	>   
9a3c			l9a3ch: 
9a3c fe 5f			cp 05fh		;9a3c	fe 5f 	. _  
9a3e 20 01			jr nz,l9a41h		;9a3e	20 01 	  .  
9a40 3c				inc a			;9a40	3c 	<  
9a41			l9a41h: 
9a41 fd be b3			cp (iy-04dh)		;9a41	fd be b3 	. . .  
9a44 20 02			jr nz,l9a48h		;9a44	20 02 	  .  
9a46 3e 1b			ld a,01bh		;9a46	3e 1b 	> .  
9a48			l9a48h: 
9a48 fe 23			cp 023h		;9a48	fe 23 	. #  
9a4a 20 02			jr nz,l9a4eh		;9a4a	20 02 	  .  
9a4c 3e 5f			ld a,05fh		;9a4c	3e 5f 	> _  
9a4e			l9a4eh: 
9a4e b7				or a			;9a4e	b7 	.  
9a4f c9				ret			;9a4f	c9 	.  
9a50			l9a50h: 
9a50 b7				or a			;9a50	b7 	.  
9a51 20 04			jr nz,l9a57h		;9a51	20 04 	  .  
9a53 3e 4f			ld a,04fh		;9a53	3e 4f 	> O  
9a55 18 06			jr l9a5dh		;9a55	18 06 	. .  
9a57			l9a57h: 
9a57 fe 5f			cp 05fh		;9a57	fe 5f 	. _  
9a59 20 02			jr nz,l9a5dh		;9a59	20 02 	  .  
9a5b 3e 23			ld a,023h		;9a5b	3e 23 	> #  
9a5d			l9a5dh: 
9a5d fe 60			cp 060h		;9a5d	fe 60 	. `  
9a5f 20 01			jr nz,l9a62h		;9a5f	20 01 	  .  
9a61			l9a61h: 
9a61 3d				dec a			;9a61	3d 	=  
9a62			l9a62h: 
9a62 b7				or a			;9a62	b7 	.  
9a63 c9				ret			;9a63	c9 	.  
9a64 f7				rst 30h			;9a64	f7 	.  
9a65 21 f7 01			ld hl,001f7h		;9a65	21 f7 01 	! . .  
9a68 f5				push af			;9a68	f5 	.  
9a69 cd 7f 18			call 0187fh		;9a69	cd 7f 18 	.  .  
9a6c f1				pop af			;9a6c	f1 	.  
9a6d fe 59			cp 059h		;9a6d	fe 59 	. Y  
9a6f c8				ret z			;9a6f	c8 	.  
9a70 fe 79			cp 079h		;9a70	fe 79 	. y  
9a72 c9				ret			;9a72	c9 	.  
9a73 f7				rst 30h			;9a73	f7 	.  
9a74 0b				dec bc			;9a74	0b 	.  
9a75 c9				ret			;9a75	c9 	.  
9a76			l9a76h: 
9a76 cd 43 02			call 00243h		;9a76	cd 43 02 	. C .  
9a79 c9				ret			;9a79	c9 	.  
9a7a			l9a7ah: 
9a7a dd 2a e5 06		ld ix,(006e5h)		;9a7a	dd 2a e5 06 	. * . .  
9a7e			l9a7eh: 
9a7e cd 49 02			call 00249h		;9a7e	cd 49 02 	. I .  
9a81 d8				ret c			;9a81	d8 	.  
9a82 b7				or a			;9a82	b7 	.  
9a83 28 f5			jr z,l9a7ah		;9a83	28 f5 	( .  
9a85 fe 0a			cp 00ah		;9a85	fe 0a 	. .  
9a87 28 f1			jr z,l9a7ah		;9a87	28 f1 	( .  
9a89			l9a89h: 
9a89 fe 4f			cp 04fh		;9a89	fe 4f 	. O  
9a8b 20 01			jr nz,l9a8eh		;9a8b	20 01 	  .  
9a8d af				xor a			;9a8d	af 	.  
9a8e			l9a8eh: 
9a8e fe 5f			cp 05fh		;9a8e	fe 5f 	. _  
9a90 20 01			jr nz,l9a93h		;9a90	20 01 	  .  
9a92 3c				inc a			;9a92	3c 	<  
9a93			l9a93h: 
9a93 fe 23			cp 023h		;9a93	fe 23 	. #  
9a95 20 02			jr nz,l9a99h		;9a95	20 02 	  .  
9a97 3e 5f			ld a,05fh		;9a97	3e 5f 	> _  
9a99			l9a99h: 
9a99 b7				or a			;9a99	b7 	.  
9a9a c9				ret			;9a9a	c9 	.  
9a9b cd 50 1b			call 01b50h		;9a9b	cd 50 1b 	. P .  
9a9e dd 2a e7 06		ld ix,(006e7h)		;9a9e	dd 2a e7 06 	. * . .  
9aa2 fe 1a			cp 01ah		;9aa2	fe 1a 	. .  
9aa4 c8				ret z			;9aa4	c8 	.  
9aa5 cd 4f 02			call 0024fh		;9aa5	cd 4f 02 	. O .  
9aa8 d0				ret nc			;9aa8	d0 	.  
9aa9 fd cb c5 86		res 0,(iy-03bh)		;9aa9	fd cb c5 86 	. . . .  
9aad cd bc 1b			call 01bbch		;9aad	cd bc 1b 	. . .  
9ab0 cd a8 15			call 015a8h		;9ab0	cd a8 15 	. . .  
9ab3 c3 a1 0a			jp 00aa1h		;9ab3	c3 a1 0a 	. . .  
9ab6 cd bc 1b			call 01bbch		;9ab6	cd bc 1b 	. . .  
9ab9 c3 a1 0a			jp 00aa1h		;9ab9	c3 a1 0a 	. . .  
9abc 21 e2 1b			ld hl,01be2h		;9abc	21 e2 1b 	! . .  
9abf 37				scf			;9abf	37 	7  
9ac0 8f				adc a,a			;9ac0	8f 	.  
9ac1 47				ld b,a			;9ac1	47 	G  
9ac2			l9ac2h: 
9ac2 23				inc hl			;9ac2	23 	#  
9ac3 10 fd			djnz l9ac2h		;9ac3	10 fd 	. .  
9ac5 4e				ld c,(hl)			;9ac5	4e 	N  
9ac6 23				inc hl			;9ac6	23 	#  
9ac7 46				ld b,(hl)			;9ac7	46 	F  
9ac8 23				inc hl			;9ac8	23 	#  
9ac9 5e				ld e,(hl)			;9ac9	5e 	^  
9aca 23				inc hl			;9aca	23 	#  
9acb 56				ld d,(hl)			;9acb	56 	V  
9acc eb				ex de,hl			;9acc	eb 	.  
9acd ed 42			sbc hl,bc		;9acd	ed 42 	. B  
9acf c5				push bc			;9acf	c5 	.  
9ad0 e5				push hl			;9ad0	e5 	.  
9ad1 c1				pop bc			;9ad1	c1 	.  
9ad2 e1				pop hl			;9ad2	e1 	.  
9ad3 cd ee 18			call 018eeh		;9ad3	cd ee 18 	. . .  
9ad6 21 2f 1b			ld hl,01b2fh		;9ad6	21 2f 1b 	! / .  
9ad9 01 02 00			ld bc,00002h		;9ad9	01 02 00 	. . .  
9adc cd ee 18			call 018eeh		;9adc	cd ee 18 	. . .  
9adf cd 7f 18			call 0187fh		;9adf	cd 7f 18 	.  .  
9ae2 c9				ret			;9ae2	c9 	.  
9ae3 03				inc bc			;9ae3	03 	.  
9ae4 1c				inc e			;9ae4	1c 	.  
9ae5 11 1c 1c			ld de,01c1ch		;9ae5	11 1c 1c 	. . .  
9ae8 1c				inc e			;9ae8	1c 	.  
9ae9 24				inc h			;9ae9	24 	$  
9aea 1c				inc e			;9aea	1c 	.  
9aeb 32 1c 3e			ld (03e1ch),a		;9aeb	32 1c 3e 	2 . >  
9aee 1c				inc e			;9aee	1c 	.  
9aef 4a				ld c,d			;9aef	4a 	J  
9af0 1c				inc e			;9af0	1c 	.  
9af1 5c				ld e,h			;9af1	5c 	\  
9af2 1c				inc e			;9af2	1c 	.  
9af3 6b				ld l,e			;9af3	6b 	k  
9af4 1c				inc e			;9af4	1c 	.  
9af5 77				ld (hl),a			;9af5	77 	w  
9af6 1c				inc e			;9af6	1c 	.  
9af7 80				add a,b			;9af7	80 	.  
9af8 1c				inc e			;9af8	1c 	.  
9af9 8d				adc a,l			;9af9	8d 	.  
9afa 1c				inc e			;9afa	1c 	.  
9afb 97				sub a			;9afb	97 	.  
9afc 1c				inc e			;9afc	1c 	.  
9afd ab				xor e			;9afd	ab 	.  
9afe 1c				inc e			;9afe	1c 	.  
9aff bc				cp h			;9aff	bc 	.  
9b00 1c				inc e			;9b00	1c 	.  
9b01 ce 1c			adc a,01ch		;9b01	ce 1c 	. .  
9b03 3f				ccf			;9b03	3f 	?  
9b04 46				ld b,(hl)			;9b04	46 	F  
9b05 69				ld l,c			;9b05	69 	i  
9b06 6c				ld l,h			;9b06	6c 	l  
9b07 65				ld h,l			;9b07	65 	e  
9b08 20 6e			jr nz,l9b78h		;9b08	20 6e 	  n  
9b0a 6f				ld l,a			;9b0a	6f 	o  
9b0b 74				ld (hl),h			;9b0b	74 	t  
9b0c 20 6f			jr nz,l9b7dh		;9b0c	20 6f 	  o  
9b0e 70				ld (hl),b			;9b0e	70 	p  
9b0f 65				ld h,l			;9b0f	65 	e  
9b10 6e				ld l,(hl)			;9b10	6e 	n  
9b11 3f				ccf			;9b11	3f 	?  
9b12 52				ld d,d			;9b12	52 	R  
9b13 65				ld h,l			;9b13	65 	e  
9b14 61				ld h,c			;9b14	61 	a  
9b15 64				ld h,h			;9b15	64 	d  
9b16 20 65			jr nz,l9b7dh		;9b16	20 65 	  e  
9b18 72				ld (hl),d			;9b18	72 	r  
9b19 72				ld (hl),d			;9b19	72 	r  
9b1a 6f				ld l,a			;9b1a	6f 	o  
9b1b 72				ld (hl),d			;9b1b	72 	r  
9b1c 3f				ccf			;9b1c	3f 	?  
9b1d 42				ld b,d			;9b1d	42 	B  
9b1e 61				ld h,c			;9b1e	61 	a  
9b1f 64				ld h,h			;9b1f	64 	d  
9b20 20 64			jr nz,l9b86h		;9b20	20 64 	  d  
9b22 65				ld h,l			;9b22	65 	e  
9b23 76				halt			;9b23	76 	v  
9b24 3f				ccf			;9b24	3f 	?  
9b25 42				ld b,d			;9b25	42 	B  
9b26 61				ld h,c			;9b26	61 	a  
9b27 64				ld h,h			;9b27	64 	d  
9b28 20 66			jr nz,l9b90h		;9b28	20 66 	  f  
9b2a 69				ld l,c			;9b2a	69 	i  
9b2b 6c				ld l,h			;9b2b	6c 	l  
9b2c 65				ld h,l			;9b2c	65 	e  
9b2d 20 73			jr nz,l9ba2h		;9b2d	20 73 	  s  
9b2f 70				ld (hl),b			;9b2f	70 	p  
9b30 65				ld h,l			;9b30	65 	e  
9b31 63				ld h,e			;9b31	63 	c  
9b32 3f				ccf			;9b32	3f 	?  
9b33 45				ld b,l			;9b33	45 	E  
9b34 6e				ld l,(hl)			;9b34	6e 	n  
9b35 64				ld h,h			;9b35	64 	d  
9b36 20 6f			jr nz,l9ba7h		;9b36	20 6f 	  o  
9b38 66				ld h,(hl)			;9b38	66 	f  
9b39 20 66			jr nz,l9ba1h		;9b39	20 66 	  f  
9b3b 69				ld l,c			;9b3b	69 	i  
9b3c 6c				ld l,h			;9b3c	6c 	l  
9b3d 65				ld h,l			;9b3d	65 	e  
9b3e 3f				ccf			;9b3e	3f 	?  
9b3f 57				ld d,a			;9b3f	57 	W  
9b40 72				ld (hl),d			;9b40	72 	r  
9b41 69				ld l,c			;9b41	69 	i  
9b42 74				ld (hl),h			;9b42	74 	t  
9b43 65				ld h,l			;9b43	65 	e  
9b44 20 65			jr nz,l9babh		;9b44	20 65 	  e  
9b46 72				ld (hl),d			;9b46	72 	r  
9b47 72				ld (hl),d			;9b47	72 	r  
9b48 6f				ld l,a			;9b48	6f 	o  
9b49 72				ld (hl),d			;9b49	72 	r  
9b4a 3f				ccf			;9b4a	3f 	?  
9b4b 49				ld c,c			;9b4b	49 	I  
9b4c 6c				ld l,h			;9b4c	6c 	l  
9b4d 6c				ld l,h			;9b4d	6c 	l  
9b4e 65				ld h,l			;9b4e	65 	e  
9b4f 67				ld h,a			;9b4f	67 	g  
9b50 61				ld h,c			;9b50	61 	a  
9b51 6c				ld l,h			;9b51	6c 	l  
9b52 20 65			jr nz,l9bb9h		;9b52	20 65 	  e  
9b54 78				ld a,b			;9b54	78 	x  
9b55 74				ld (hl),h			;9b55	74 	t  
9b56 65				ld h,l			;9b56	65 	e  
9b57 6e				ld l,(hl)			;9b57	6e 	n  
9b58 73				ld (hl),e			;9b58	73 	s  
9b59 69				ld l,c			;9b59	69 	i  
9b5a 6f				ld l,a			;9b5a	6f 	o  
9b5b 6e				ld l,(hl)			;9b5b	6e 	n  
9b5c 3f				ccf			;9b5c	3f 	?  
9b5d 46				ld b,(hl)			;9b5d	46 	F  
9b5e 69				ld l,c			;9b5e	69 	i  
9b5f 6c				ld l,h			;9b5f	6c 	l  
9b60 65				ld h,l			;9b60	65 	e  
9b61 20 6e			jr nz,$+112		;9b61	20 6e 	  n  
9b63 6f				ld l,a			;9b63	6f 	o  
9b64 74				ld (hl),h			;9b64	74 	t  
9b65 20 66			jr nz,l9bcdh		;9b65	20 66 	  f  
9b67 6f				ld l,a			;9b67	6f 	o  
9b68 75				ld (hl),l			;9b68	75 	u  
9b69 6e				ld l,(hl)			;9b69	6e 	n  
9b6a 64				ld h,h			;9b6a	64 	d  
9b6b 3f				ccf			;9b6b	3f 	?  
9b6c 46				ld b,(hl)			;9b6c	46 	F  
9b6d 69				ld l,c			;9b6d	69 	i  
9b6e 6c				ld l,h			;9b6e	6c 	l  
9b6f 65				ld h,l			;9b6f	65 	e  
9b70 20 65			jr nz,l9bd7h		;9b70	20 65 	  e  
9b72 78				ld a,b			;9b72	78 	x  
9b73 69				ld l,c			;9b73	69 	i  
9b74 73				ld (hl),e			;9b74	73 	s  
9b75 74				ld (hl),h			;9b75	74 	t  
9b76 73				ld (hl),e			;9b76	73 	s  
9b77 3f				ccf			;9b77	3f 	?  
9b78			l9b78h: 
9b78 44				ld b,h			;9b78	44 	D  
9b79 69				ld l,c			;9b79	69 	i  
9b7a 72				ld (hl),d			;9b7a	72 	r  
9b7b 20 66			jr nz,l9be3h		;9b7b	20 66 	  f  
9b7d			l9b7dh: 
9b7d 75				ld (hl),l			;9b7d	75 	u  
9b7e 6c				ld l,h			;9b7e	6c 	l  
9b7f 6c				ld l,h			;9b7f	6c 	l  
9b80 3f				ccf			;9b80	3f 	?  
9b81 43				ld b,e			;9b81	43 	C  
9b82 61				ld h,c			;9b82	61 	a  
9b83 6e				ld l,(hl)			;9b83	6e 	n  
9b84 6e				ld l,(hl)			;9b84	6e 	n  
9b85 6f				ld l,a			;9b85	6f 	o  
9b86			l9b86h: 
9b86 74				ld (hl),h			;9b86	74 	t  
9b87 20 63			jr nz,l9bech		;9b87	20 63 	  c  
9b89 6c				ld l,h			;9b89	6c 	l  
9b8a 6f				ld l,a			;9b8a	6f 	o  
9b8b 73				ld (hl),e			;9b8b	73 	s  
9b8c 65				ld h,l			;9b8c	65 	e  
9b8d 3f				ccf			;9b8d	3f 	?  
9b8e 44				ld b,h			;9b8e	44 	D  
9b8f 69				ld l,c			;9b8f	69 	i  
9b90			l9b90h: 
9b90 73				ld (hl),e			;9b90	73 	s  
9b91 63				ld h,e			;9b91	63 	c  
9b92 20 66			jr nz,l9bfah		;9b92	20 66 	  f  
9b94 75				ld (hl),l			;9b94	75 	u  
9b95 6c				ld l,h			;9b95	6c 	l  
9b96 6c				ld l,h			;9b96	6c 	l  
9b97 3f				ccf			;9b97	3f 	?  
9b98 22 45 42			ld (04245h),hl		;9b98	22 45 42 	" E B  
9b9b 22 20 61			ld (06120h),hl		;9b9b	22 20 61 	"   a  
9b9e 6c				ld l,h			;9b9e	6c 	l  
9b9f 72				ld (hl),d			;9b9f	72 	r  
9ba0 65				ld h,l			;9ba0	65 	e  
9ba1			l9ba1h: 
9ba1 61				ld h,c			;9ba1	61 	a  
9ba2			l9ba2h: 
9ba2 64				ld h,h			;9ba2	64 	d  
9ba3 79				ld a,c			;9ba3	79 	y  
9ba4 20 61			jr nz,l9c07h		;9ba4	20 61 	  a  
9ba6 63				ld h,e			;9ba6	63 	c  
9ba7			l9ba7h: 
9ba7 74				ld (hl),h			;9ba7	74 	t  
9ba8 69				ld l,c			;9ba8	69 	i  
9ba9 76				halt			;9ba9	76 	v  
9baa 65				ld h,l			;9baa	65 	e  
9bab			l9babh: 
9bab 3f				ccf			;9bab	3f 	?  
9bac 4f				ld c,a			;9bac	4f 	O  
9bad 75				ld (hl),l			;9bad	75 	u  
9bae 74				ld (hl),h			;9bae	74 	t  
9baf 70				ld (hl),b			;9baf	70 	p  
9bb0 75				ld (hl),l			;9bb0	75 	u  
9bb1 74				ld (hl),h			;9bb1	74 	t  
9bb2 20 66			jr nz,l9c1ah		;9bb2	20 66 	  f  
9bb4 69				ld l,c			;9bb4	69 	i  
9bb5 6c				ld l,h			;9bb5	6c 	l  
9bb6 65				ld h,l			;9bb6	65 	e  
9bb7 20 6f			jr nz,l9c28h		;9bb7	20 6f 	  o  
9bb9			l9bb9h: 
9bb9 70				ld (hl),b			;9bb9	70 	p  
9bba 65				ld h,l			;9bba	65 	e  
9bbb 6e				ld l,(hl)			;9bbb	6e 	n  
9bbc 3f				ccf			;9bbc	3f 	?  
9bbd 22 45 42			ld (04245h),hl		;9bbd	22 45 42 	" E B  
9bc0 22 20 2d			ld (02d20h),hl		;9bc0	22 20 2d 	"   -  
9bc3 20 6d			jr nz,l9c32h		;9bc3	20 6d 	  m  
9bc5 6f				ld l,a			;9bc5	6f 	o  
9bc6 72				ld (hl),d			;9bc6	72 	r  
9bc7 65				ld h,l			;9bc7	65 	e  
9bc8 20 69			jr nz,l9c33h		;9bc8	20 69 	  i  
9bca 6e				ld l,(hl)			;9bca	6e 	n  
9bcb 70				ld (hl),b			;9bcb	70 	p  
9bcc 75				ld (hl),l			;9bcc	75 	u  
9bcd			l9bcdh: 
9bcd 74				ld (hl),h			;9bcd	74 	t  
9bce eb				ex de,hl			;9bce	eb 	.  
9bcf 2a eb 2a			ld hl,(02aebh)		;9bcf	2a eb 2a 	* . *  
9bd2 ee 2a			xor 02ah		;9bd2	ee 2a 	. *  
9bd4 eb				ex de,hl			;9bd4	eb 	.  
9bd5 2b				dec hl			;9bd5	2b 	+  
9bd6 eb				ex de,hl			;9bd6	eb 	.  
9bd7			l9bd7h: 
9bd7 2a 51 01			ld hl,(00151h)		;9bd7	2a 51 01 	* Q .  
9bda 00				nop			;9bda	00 	.  
9bdb 00				nop			;9bdb	00 	.  
9bdc ff				rst 38h			;9bdc	ff 	.  
9bdd ff				rst 38h			;9bdd	ff 	.  
9bde e9				jp (hl)			;9bde	e9 	.  
9bdf 80				add a,b			;9bdf	80 	.  
9be0 f4 cd eb			call p,0ebcdh		;9be0	f4 cd eb 	. . .  
9be3			l9be3h: 
9be3 2a 00 cb			ld hl,(0cb00h)		;9be3	2a 00 cb 	* . .  
9be6 40				ld b,b			;9be6	40 	@  
9be7 28 08			jr z,l9bf1h		;9be7	28 08 	( .  
9be9 cd 2f 12			call 0122fh		;9be9	cd 2f 12 	. / .  
9bec			l9bech: 
9bec dd 80 02			defb 0ddh,080h,002h	;illegal sequence		;9bec	dd 80 02 	. . .  
9bef 18 5a			jr l9c4bh		;9bef	18 5a 	. Z  
9bf1			l9bf1h: 
9bf1 53				ld d,e			;9bf1	53 	S  
9bf2 4d				ld c,l			;9bf2	4d 	M  
9bf3 fe 01			cp 001h		;9bf3	fe 01 	. .  
9bf5 c2 5e 12			jp nz,0125eh		;9bf5	c2 5e 12 	. ^ .  
9bf8 d9				exx			;9bf8	d9 	.  
9bf9 7a				ld a,d			;9bf9	7a 	z  
9bfa			l9bfah: 
9bfa fe 8e			cp 08eh		;9bfa	fe 8e 	. .  
9bfc 28 04			jr z,l9c02h		;9bfc	28 04 	( .  
9bfe fe 8f			cp 08fh		;9bfe	fe 8f 	. .  
9c00 00				nop			;9c00	00 	.  
9c01 50				ld d,b			;9c01	50 	P  
9c02			l9c02h: 
9c02 4f				ld c,a			;9c02	4f 	O  
9c03 55				ld d,l			;9c03	55 	U  
9c04 4e				ld c,(hl)			;9c04	4e 	N  
9c05 eb				ex de,hl			;9c05	eb 	.  
9c06 2b				dec hl			;9c06	2b 	+  
9c07			l9c07h: 
9c07 eb				ex de,hl			;9c07	eb 	.  
9c08 2b				dec hl			;9c08	2b 	+  
9c09 eb				ex de,hl			;9c09	eb 	.  
9c0a 2d				dec l			;9c0a	2d 	-  
9c0b 24				inc h			;9c0b	24 	$  
9c0c 00				nop			;9c0c	00 	.  
9c0d 00				nop			;9c0d	00 	.  
9c0e 00				nop			;9c0e	00 	.  
9c0f 00				nop			;9c0f	00 	.  
9c10 00				nop			;9c10	00 	.  
9c11 00				nop			;9c11	00 	.  
9c12 00				nop			;9c12	00 	.  
9c13 eb				ex de,hl			;9c13	eb 	.  
9c14 2d				dec l			;9c14	2d 	-  
9c15 eb				ex de,hl			;9c15	eb 	.  
9c16 2d				dec l			;9c16	2d 	-  
9c17 d6 6c			sub 06ch		;9c17	d6 6c 	. l  
9c19 05				dec b			;9c19	05 	.  
9c1a			l9c1ah: 
9c1a 6d				ld l,l			;9c1a	6d 	m  
9c1b 00				nop			;9c1b	00 	.  
9c1c 00				nop			;9c1c	00 	.  
9c1d 00				nop			;9c1d	00 	.  
9c1e 00				nop			;9c1e	00 	.  
9c1f 00				nop			;9c1f	00 	.  
9c20 00				nop			;9c20	00 	.  
9c21 50				ld d,b			;9c21	50 	P  
9c22 43				ld b,e			;9c22	43 	C  
9c23 43				ld b,e			;9c23	43 	C  
9c24 20 20			jr nz,l9c46h		;9c24	20 20 	     
9c26 20 20			jr nz,l9c48h		;9c26	20 20 	     
9c28			l9c28h: 
9c28 20 43			jr nz,l9c6dh		;9c28	20 43 	  C  
9c2a 4f				ld c,a			;9c2a	4f 	O  
9c2b 4d				ld c,l			;9c2b	4d 	M  
9c2c 00				nop			;9c2c	00 	.  
9c2d 00				nop			;9c2d	00 	.  
9c2e 00				nop			;9c2e	00 	.  
9c2f 38 43			jr c,l9c74h		;9c2f	38 43 	8 C  
9c31 44				ld b,h			;9c31	44 	D  
9c32			l9c32h: 
9c32 45				ld b,l			;9c32	45 	E  
9c33			l9c33h: 
9c33 46				ld b,(hl)			;9c33	46 	F  
9c34 47				ld b,a			;9c34	47 	G  
9c35 48				ld c,b			;9c35	48 	H  
9c36 49				ld c,c			;9c36	49 	I  
9c37 00				nop			;9c37	00 	.  
9c38 00				nop			;9c38	00 	.  
9c39 00				nop			;9c39	00 	.  
9c3a 00				nop			;9c3a	00 	.  
9c3b 00				nop			;9c3b	00 	.  
9c3c 00				nop			;9c3c	00 	.  
9c3d 00				nop			;9c3d	00 	.  
9c3e 00				nop			;9c3e	00 	.  
9c3f 00				nop			;9c3f	00 	.  
9c40 e5				push hl			;9c40	e5 	.  
9c41 e5				push hl			;9c41	e5 	.  
9c42 e5				push hl			;9c42	e5 	.  
9c43 e5				push hl			;9c43	e5 	.  
9c44 e5				push hl			;9c44	e5 	.  
9c45 e5				push hl			;9c45	e5 	.  
9c46			l9c46h: 
9c46 e5				push hl			;9c46	e5 	.  
9c47 e5				push hl			;9c47	e5 	.  
9c48			l9c48h: 
9c48 e5				push hl			;9c48	e5 	.  
9c49 e5				push hl			;9c49	e5 	.  
9c4a e5				push hl			;9c4a	e5 	.  
9c4b			l9c4bh: 
9c4b e5				push hl			;9c4b	e5 	.  
9c4c e5				push hl			;9c4c	e5 	.  
9c4d e5				push hl			;9c4d	e5 	.  
9c4e e5				push hl			;9c4e	e5 	.  
9c4f e5				push hl			;9c4f	e5 	.  
9c50 e5				push hl			;9c50	e5 	.  
9c51 e5				push hl			;9c51	e5 	.  
9c52 e5				push hl			;9c52	e5 	.  
9c53 e5				push hl			;9c53	e5 	.  
9c54 e5				push hl			;9c54	e5 	.  
9c55 e5				push hl			;9c55	e5 	.  
9c56 e5				push hl			;9c56	e5 	.  
9c57 e5				push hl			;9c57	e5 	.  
9c58 e5				push hl			;9c58	e5 	.  
9c59 e5				push hl			;9c59	e5 	.  
9c5a e5				push hl			;9c5a	e5 	.  
9c5b e5				push hl			;9c5b	e5 	.  
9c5c e5				push hl			;9c5c	e5 	.  
9c5d e5				push hl			;9c5d	e5 	.  
9c5e e5				push hl			;9c5e	e5 	.  
9c5f e5				push hl			;9c5f	e5 	.  
9c60 e5				push hl			;9c60	e5 	.  
9c61 e5				push hl			;9c61	e5 	.  
9c62 e5				push hl			;9c62	e5 	.  
9c63 e5				push hl			;9c63	e5 	.  
9c64 e5				push hl			;9c64	e5 	.  
9c65 e5				push hl			;9c65	e5 	.  
9c66 e5				push hl			;9c66	e5 	.  
9c67 e5				push hl			;9c67	e5 	.  
9c68 e5				push hl			;9c68	e5 	.  
9c69 e5				push hl			;9c69	e5 	.  
9c6a e5				push hl			;9c6a	e5 	.  
9c6b e5				push hl			;9c6b	e5 	.  
9c6c e5				push hl			;9c6c	e5 	.  
9c6d			l9c6dh: 
9c6d e5				push hl			;9c6d	e5 	.  
9c6e e5				push hl			;9c6e	e5 	.  
9c6f e5				push hl			;9c6f	e5 	.  
9c70 e5				push hl			;9c70	e5 	.  
9c71 e5				push hl			;9c71	e5 	.  
9c72 e5				push hl			;9c72	e5 	.  
9c73 e5				push hl			;9c73	e5 	.  
9c74			l9c74h: 
9c74 e5				push hl			;9c74	e5 	.  
9c75 e5				push hl			;9c75	e5 	.  
9c76 e5				push hl			;9c76	e5 	.  
9c77 e5				push hl			;9c77	e5 	.  
9c78 e5				push hl			;9c78	e5 	.  
9c79 e5				push hl			;9c79	e5 	.  
9c7a e5				push hl			;9c7a	e5 	.  
9c7b e5				push hl			;9c7b	e5 	.  
9c7c e5				push hl			;9c7c	e5 	.  
9c7d e5				push hl			;9c7d	e5 	.  
9c7e e5				push hl			;9c7e	e5 	.  
9c7f e5				push hl			;9c7f	e5 	.  
9c80 28 0b			jr z,l9c8dh		;9c80	28 0b 	( .  
9c82 fe 12			cp 012h		;9c82	fe 12 	. .  
9c84 28 04			jr z,l9c8ah		;9c84	28 04 	( .  
9c86 fe 13			cp 013h		;9c86	fe 13 	. .  
9c88 20 0a			jr nz,l9c94h		;9c88	20 0a 	  .  
9c8a			l9c8ah: 
9c8a cd 0c 12			call 0120ch		;9c8a	cd 0c 12 	. . .  
9c8d			l9c8dh: 
9c8d 3e f9			ld a,0f9h		;9c8d	3e f9 	> .  
9c8f cd ab 05			call 005abh		;9c8f	cd ab 05 	. . .  
9c92 6d				ld l,l			;9c92	6d 	m  
9c93 05				dec b			;9c93	05 	.  
9c94			l9c94h: 
9c94 6d				ld l,l			;9c94	6d 	m  
9c95 eb				ex de,hl			;9c95	eb 	.  
9c96 2b				dec hl			;9c96	2b 	+  
9c97 05				dec b			;9c97	05 	.  
9c98 6d				ld l,l			;9c98	6d 	m  
9c99 e9				jp (hl)			;9c99	e9 	.  
9c9a 2a 4f 2d			ld hl,(02d4fh)		;9c9a	2a 4f 2d 	* O -  
9c9d eb				ex de,hl			;9c9d	eb 	.  
9c9e 2c				inc l			;9c9e	2c 	,  
9c9f 3d				dec a			;9c9f	3d 	=  
9ca0 00				nop			;9ca0	00 	.  
9ca1 00				nop			;9ca1	00 	.  
9ca2 06 01			ld b,001h		;9ca2	06 01 	. .  
9ca4 01 48 08			ld bc,00848h		;9ca4	01 48 08 	. H .  
9ca7 08				ex af,af'			;9ca7	08 	.  
9ca8 04				inc b			;9ca8	04 	.  
9ca9 0c				inc c			;9ca9	0c 	.  
9caa 01 00 00			ld bc,00000h		;9caa	01 00 00 	. . .  
9cad 00				nop			;9cad	00 	.  
9cae 00				nop			;9cae	00 	.  
9caf 00				nop			;9caf	00 	.  
9cb0 00				nop			;9cb0	00 	.  
9cb1 00				nop			;9cb1	00 	.  
9cb2 23				inc hl			;9cb2	23 	#  
9cb3 00				nop			;9cb3	00 	.  
9cb4 00				nop			;9cb4	00 	.  
9cb5 00				nop			;9cb5	00 	.  
9cb6 00				nop			;9cb6	00 	.  
9cb7 00				nop			;9cb7	00 	.  
9cb8 00				nop			;9cb8	00 	.  
9cb9 00				nop			;9cb9	00 	.  
9cba 00				nop			;9cba	00 	.  
9cbb d0				ret nc			;9cbb	d0 	.  
9cbc 1d				dec e			;9cbc	1d 	.  
9cbd d8				ret c			;9cbd	d8 	.  
9cbe 1d				dec e			;9cbe	1d 	.  
9cbf df				rst 18h			;9cbf	df 	.  
9cc0 1d				dec e			;9cc0	1d 	.  
9cc1 e9				jp (hl)			;9cc1	e9 	.  
9cc2 1d				dec e			;9cc2	1d 	.  
9cc3 f2 1d fa			jp p,0fa1dh		;9cc3	f2 1d fa 	. . .  
9cc6 1d				dec e			;9cc6	1d 	.  
9cc7 00				nop			;9cc7	00 	.  
9cc8 1e 06			ld e,006h		;9cc8	1e 06 	. .  
9cca 1e 0c			ld e,00ch		;9cca	1e 0c 	. .  
9ccc 1e 12			ld e,012h		;9ccc	1e 12 	. .  
9cce 1e 20			ld e,020h		;9cce	1e 20 	.    
9cd0 5f				ld e,a			;9cd0	5f 	_  
9cd1 08				ex af,af'			;9cd1	08 	.  
9cd2 00				nop			;9cd2	00 	.  
9cd3 00				nop			;9cd3	00 	.  
9cd4 00				nop			;9cd4	00 	.  
9cd5 00				nop			;9cd5	00 	.  
9cd6 00				nop			;9cd6	00 	.  
9cd7 00				nop			;9cd7	00 	.  
9cd8 00				nop			;9cd8	00 	.  
9cd9 00				nop			;9cd9	00 	.  
9cda 00				nop			;9cda	00 	.  
9cdb 00				nop			;9cdb	00 	.  
9cdc 00				nop			;9cdc	00 	.  
9cdd 00				nop			;9cdd	00 	.  
9cde 00				nop			;9cde	00 	.  
9cdf 08				ex af,af'			;9cdf	08 	.  
9ce0 00				nop			;9ce0	00 	.  
9ce1 00				nop			;9ce1	00 	.  
9ce2 00				nop			;9ce2	00 	.  
9ce3 00				nop			;9ce3	00 	.  
9ce4 00				nop			;9ce4	00 	.  
9ce5 00				nop			;9ce5	00 	.  
9ce6 00				nop			;9ce6	00 	.  
9ce7 00				nop			;9ce7	00 	.  
9ce8 00				nop			;9ce8	00 	.  
9ce9 00				nop			;9ce9	00 	.  
9cea 00				nop			;9cea	00 	.  
9ceb 00				nop			;9ceb	00 	.  
9cec 00				nop			;9cec	00 	.  
9ced 00				nop			;9ced	00 	.  
9cee 00				nop			;9cee	00 	.  
9cef 00				nop			;9cef	00 	.  
9cf0 00				nop			;9cf0	00 	.  
9cf1 00				nop			;9cf1	00 	.  
9cf2 00				nop			;9cf2	00 	.  
9cf3 00				nop			;9cf3	00 	.  
9cf4 00				nop			;9cf4	00 	.  
9cf5 00				nop			;9cf5	00 	.  
9cf6 00				nop			;9cf6	00 	.  
9cf7 00				nop			;9cf7	00 	.  
9cf8 00				nop			;9cf8	00 	.  
9cf9 00				nop			;9cf9	00 	.  
9cfa 1b				dec de			;9cfa	1b 	.  
9cfb 00				nop			;9cfb	00 	.  
9cfc 00				nop			;9cfc	00 	.  
9cfd 00				nop			;9cfd	00 	.  
9cfe 00				nop			;9cfe	00 	.  
9cff 00				nop			;9cff	00 	.  
9d00 1b				dec de			;9d00	1b 	.  
9d01 44				ld b,h			;9d01	44 	D  
9d02 00				nop			;9d02	00 	.  
9d03 00				nop			;9d03	00 	.  
9d04 00				nop			;9d04	00 	.  
9d05 00				nop			;9d05	00 	.  
9d06 1b				dec de			;9d06	1b 	.  
9d07 55				ld d,l			;9d07	55 	U  
9d08 00				nop			;9d08	00 	.  
9d09 00				nop			;9d09	00 	.  
9d0a 00				nop			;9d0a	00 	.  
9d0b 00				nop			;9d0b	00 	.  
9d0c 08				ex af,af'			;9d0c	08 	.  
9d0d 00				nop			;9d0d	00 	.  
9d0e 00				nop			;9d0e	00 	.  
9d0f 00				nop			;9d0f	00 	.  
9d10 00				nop			;9d10	00 	.  
9d11 00				nop			;9d11	00 	.  
9d12 1b				dec de			;9d12	1b 	.  
9d13 4e				ld c,(hl)			;9d13	4e 	N  
9d14 00				nop			;9d14	00 	.  
9d15 00				nop			;9d15	00 	.  
9d16 00				nop			;9d16	00 	.  
9d17 00				nop			;9d17	00 	.  
9d18 3c				inc a			;9d18	3c 	<  
9d19 3c				inc a			;9d19	3c 	<  
9d1a 80				add a,b			;9d1a	80 	.  
9d1b 0d				dec c			;9d1b	0d 	.  
9d1c 31 00 00			ld sp,00000h		;9d1c	31 00 00 	1 . .  
9d1f 00				nop			;9d1f	00 	.  
9d20 00				nop			;9d20	00 	.  
9d21 00				nop			;9d21	00 	.  
9d22 ec 2c 1e			call pe,01e2ch		;9d22	ec 2c 1e 	. , .  
9d25 1e b3			ld e,0b3h		;9d25	1e b3 	. .  
9d27 2d				dec l			;9d27	2d 	-  
9d28 cd 91 14			call 01491h		;9d28	cd 91 14 	. . .  
9d2b 3e 83			ld a,083h		;9d2b	3e 83 	> .  
9d2d 18 10			jr l9d3fh		;9d2d	18 10 	. .  
9d2f 3e 81			ld a,081h		;9d2f	3e 81 	> .  
9d31 18 0c			jr l9d3fh		;9d31	18 0c 	. .  
9d33 3a dd 1c			ld a,(01cddh)		;9d33	3a dd 1c 	: . .  
9d36 b7				or a			;9d36	b7 	.  
9d37 fa 6b 0d			jp m,00d6bh		;9d37	fa 6b 0d 	. k .  
9d3a af				xor a			;9d3a	af 	.  
9d3b 18 02			jr l9d3fh		;9d3b	18 02 	. .  
9d3d 3e 01			ld a,001h		;9d3d	3e 01 	> .  
9d3f			l9d3fh: 
9d3f fd 77 d1			ld (iy-02fh),a		;9d3f	fd 77 d1 	. w .  
9d42 cd 72 1a			call 01a72h		;9d42	cd 72 1a 	. r .  
9d45 cd 83 1a			call 01a83h		;9d45	cd 83 1a 	. . .  
9d48 cd 24 14			call 01424h		;9d48	cd 24 14 	. $ .  
9d4b 2a 19 1d			ld hl,(01d19h)		;9d4b	2a 19 1d 	* . .  
9d4e ed 5b 17 1d		ld de,(01d17h)		;9d4e	ed 5b 17 1d 	. [ . .  
9d52 cd 8b 1a			call 01a8bh		;9d52	cd 8b 1a 	. . .  
9d55 c8				ret z			;9d55	c8 	.  
9d56 fd 36 c0 0d		ld (iy-040h),00dh		;9d56	fd 36 c0 0d 	. 6 . .  
9d5a 22 91 1d			ld (01d91h),hl		;9d5a	22 91 1d 	" . .  
9d5d ed 53 93 1d		ld (01d93h),de		;9d5d	ed 53 93 1d 	. S . .  
9d61 ed 73 99 1d		ld (01d99h),sp		;9d61	ed 73 99 1d 	. s . .  
9d65 2a 05 1d			ld hl,(01d05h)		;9d65	2a 05 1d 	* . .  
9d68 22 07 1d			ld (01d07h),hl		;9d68	22 07 1d 	" . .  
9d6b fd cb c6 46		bit 0,(iy-03ah)		;9d6b	fd cb c6 46 	. . . F  
9d6f 20 37			jr nz,l9da8h		;9d6f	20 37 	  7  
9d71 cd b4 21			call 021b4h		;9d71	cd b4 21 	. . !  
9d74 21 9f 1d			ld hl,01d9fh		;9d74	21 9f 1d 	! . .  
9d77 11 31 01			ld de,00131h		;9d77	11 31 01 	. 1 .  
9d7a 01 1c 00			ld bc,0001ch		;9d7a	01 1c 00 	. . .  
9d7d ed b0			ldir		;9d7d	ed b0 	. .  
9d7f cd be 27			call 027beh		;9d7f	cd be 27 	. . '  
9d82 fd 7e d4			ld a,(iy-02ch)		;9d82	fd 7e d4 	. ~ .  
9d85 fd 77 d0			ld (iy-030h),a		;9d85	fd 77 d0 	. w .  
9d88 2a 05 1d			ld hl,(01d05h)		;9d88	2a 05 1d 	* . .  
9d8b 22 95 1d			ld (01d95h),hl		;9d8b	22 95 1d 	" . .  
9d8e 24				inc h			;9d8e	24 	$  
9d8f 22 9d 1d			ld (01d9dh),hl		;9d8f	22 9d 1d 	" . .  
9d92 36 0d			ld (hl),00dh		;9d92	36 0d 	6 .  
9d94 11 64 00			ld de,00064h		;9d94	11 64 00 	. d .  
9d97 19				add hl,de			;9d97	19 	.  
9d98 22 9b 1d			ld (01d9bh),hl		;9d98	22 9b 1d 	" . .  
9d9b eb				ex de,hl			;9d9b	eb 	.  
9d9c 19				add hl,de			;9d9c	19 	.  
9d9d 22 26 1e			ld (01e26h),hl		;9d9d	22 26 1e 	" & .  
9da0 21 18 1e			ld hl,01e18h		;9da0	21 18 1e 	! . .  
9da3 01 04 00			ld bc,00004h		;9da3	01 04 00 	. . .  
9da6 ed b0			ldir		;9da6	ed b0 	. .  
9da8			l9da8h: 
9da8 fd cb d5 46		bit 0,(iy-02bh)		;9da8	fd cb d5 46 	. . . F  
9dac c2 70 21			jp nz,02170h		;9dac	c2 70 21 	. p !  
9daf			l9dafh: 
9daf fd 7e d9			ld a,(iy-027h)		;9daf	fd 7e d9 	. ~ .  
9db2 fd 96 db			sub (iy-025h)		;9db2	fd 96 db 	. . .  
9db5 fd 77 f0			ld (iy-010h),a		;9db5	fd 77 f0 	. w .  
9db8 fd 7e e5			ld a,(iy-01bh)		;9db8	fd 7e e5 	. ~ .  
9dbb b7				or a			;9dbb	b7 	.  
9dbc 20 05			jr nz,l9dc3h		;9dbc	20 05 	  .  
9dbe fd 7e db			ld a,(iy-025h)		;9dbe	fd 7e db 	. ~ .  
9dc1 cb 3f			srl a		;9dc1	cb 3f 	. ?  
9dc3			l9dc3h: 
9dc3 fd 86 f0			add a,(iy-010h)		;9dc3	fd 86 f0 	. . .  
9dc6 3d				dec a			;9dc6	3d 	=  
9dc7 fd 77 ef			ld (iy-011h),a		;9dc7	fd 77 ef 	. w .  
9dca fd 7e da			ld a,(iy-026h)		;9dca	fd 7e da 	. ~ .  
9dcd fd 96 dc			sub (iy-024h)		;9dcd	fd 96 dc 	. . .  
9dd0 fa ce 21			jp m,021ceh		;9dd0	fa ce 21 	. . !  
9dd3 fd 77 f1			ld (iy-00fh),a		;9dd3	fd 77 f1 	. w .  
9dd6 c3 ce 21			jp 021ceh		;9dd6	c3 ce 21 	. . !  
9dd9 fd 7e da			ld a,(iy-026h)		;9dd9	fd 7e da 	. ~ .  
9ddc cd 46 25			call 02546h		;9ddc	cd 46 25 	. F %  
9ddf fd 77 da			ld (iy-026h),a		;9ddf	fd 77 da 	. w .  
9de2 18 cb			jr l9dafh		;9de2	18 cb 	. .  
9de4 fd 7e dc			ld a,(iy-024h)		;9de4	fd 7e dc 	. ~ .  
9de7 cd 46 25			call 02546h		;9de7	cd 46 25 	. F %  
9dea fd 77 dc			ld (iy-024h),a		;9dea	fd 77 dc 	. w .  
9ded 18 c0			jr l9dafh		;9ded	18 c0 	. .  
9def fd 7e db			ld a,(iy-025h)		;9def	fd 7e db 	. ~ .  
9df2 cd 46 25			call 02546h		;9df2	cd 46 25 	. F %  
9df5 fd 77 db			ld (iy-025h),a		;9df5	fd 77 db 	. w .  
9df8 18 b5			jr l9dafh		;9df8	18 b5 	. .  
9dfa fd 7e d9			ld a,(iy-027h)		;9dfa	fd 7e d9 	. ~ .  
9dfd cd 46 25			call 02546h		;9dfd	cd 46 25 	. F %  
9e00 fd 77 d9			ld (iy-027h),a		;9e00	fd 77 d9 	. w .  
9e03 18 aa			jr l9dafh		;9e03	18 aa 	. .  
9e05 fd 7e e5			ld a,(iy-01bh)		;9e05	fd 7e e5 	. ~ .  
9e08 cd 46 25			call 02546h		;9e08	cd 46 25 	. F %  
9e0b fd 77 e5			ld (iy-01bh),a		;9e0b	fd 77 e5 	. w .  
9e0e 18 9f			jr l9dafh		;9e0e	18 9f 	. .  
9e10 cd 8b 24			call 0248bh		;9e10	cd 8b 24 	. . $  
9e13 fd 7e dd			ld a,(iy-023h)		;9e13	fd 7e dd 	. ~ .  
9e16 cd f7 22			call 022f7h		;9e16	cd f7 22 	. . "  
9e19 fa cb 21			jp m,021cbh		;9e19	fa cb 21 	. . !  
9e1c fd 77 dd			ld (iy-023h),a		;9e1c	fd 77 dd 	. w .  
9e1f c3 cb 21			jp 021cbh		;9e1f	c3 cb 21 	. . !  
9e22			l9e22h: 
9e22 2a 91 1d			ld hl,(01d91h)		;9e22	2a 91 1d 	* . .  
9e25 ed 5b 93 1d		ld de,(01d93h)		;9e25	ed 5b 93 1d 	. [ . .  
9e29 cd 8b 1a			call 01a8bh		;9e29	cd 8b 1a 	. . .  
9e2c 28 69			jr z,l9e97h		;9e2c	28 69 	( i  
9e2e 1a				ld a,(de)			;9e2e	1a 	.  
9e2f 13				inc de			;9e2f	13 	.  
9e30 ed 53 93 1d		ld (01d93h),de		;9e30	ed 53 93 1d 	. S . .  
9e34 cd 50 1b			call 01b50h		;9e34	cd 50 1b 	. P .  
9e37 fe 80			cp 080h		;9e37	fe 80 	. .  
9e39 20 05			jr nz,l9e40h		;9e39	20 05 	  .  
9e3b fd 34 e3			inc (iy-01dh)		;9e3b	fd 34 e3 	. 4 .  
9e3e 18 e2			jr l9e22h		;9e3e	18 e2 	. .  
9e40			l9e40h: 
9e40 fe 20			cp 020h		;9e40	fe 20 	.    
9e42 30 08			jr nc,l9e4ch		;9e42	30 08 	0 .  
9e44 fe 0d			cp 00dh		;9e44	fe 0d 	. .  
9e46 28 04			jr z,l9e4ch		;9e46	28 04 	( .  
9e48 fe 09			cp 009h		;9e48	fe 09 	. .  
9e4a 20 d6			jr nz,l9e22h		;9e4a	20 d6 	  .  
9e4c			l9e4ch: 
9e4c fd 46 c0			ld b,(iy-040h)		;9e4c	fd 46 c0 	. F .  
9e4f fd 77 c0			ld (iy-040h),a		;9e4f	fd 77 c0 	. w .  
9e52 c9				ret			;9e52	c9 	.  
9e53 cd 22 1f			call 01f22h		;9e53	cd 22 1f 	. " .  
9e56 fd be e2			cp (iy-01eh)		;9e56	fd be e2 	. . .  
9e59 20 02			jr nz,l9e5dh		;9e59	20 02 	  .  
9e5b 3e ff			ld a,0ffh		;9e5b	3e ff 	> .  
9e5d			l9e5dh: 
9e5d fd be e7			cp (iy-019h)		;9e5d	fd be e7 	. . .  
9e60 20 02			jr nz,l9e64h		;9e60	20 02 	  .  
9e62 3e fe			ld a,0feh		;9e62	3e fe 	> .  
9e64			l9e64h: 
9e64 fd be ea			cp (iy-016h)		;9e64	fd be ea 	. . .  
9e67 20 02			jr nz,l9e6bh		;9e67	20 02 	  .  
9e69 3e fd			ld a,0fdh		;9e69	3e fd 	> .  
9e6b			l9e6bh: 
9e6b fd be eb			cp (iy-015h)		;9e6b	fd be eb 	. . .  
9e6e 20 02			jr nz,l9e72h		;9e6e	20 02 	  .  
9e70 3e fc			ld a,0fch		;9e70	3e fc 	> .  
9e72			l9e72h: 
9e72 fd be ec			cp (iy-014h)		;9e72	fd be ec 	. . .  
9e75 20 02			jr nz,l9e79h		;9e75	20 02 	  .  
9e77 3e fb			ld a,0fbh		;9e77	3e fb 	> .  
9e79			l9e79h: 
9e79 fd be ed			cp (iy-013h)		;9e79	fd be ed 	. . .  
9e7c 20 02			jr nz,l9e80h		;9e7c	20 02 	  .  
9e7e 3e fa			ld a,0fah		;9e7e	3e fa 	> .  
9e80			l9e80h: 
9e80 fd be ee			cp (iy-012h)		;9e80	fd be ee 	. . .  
9e83 20 02			jr nz,l9e87h		;9e83	20 02 	  .  
9e85 3e f9			ld a,0f9h		;9e85	3e f9 	> .  
9e87			l9e87h: 
9e87 4f				ld c,a			;9e87	4f 	O  
9e88 78				ld a,b			;9e88	78 	x  
9e89 fe 0d			cp 00dh		;9e89	fe 0d 	. .  
9e8b 79				ld a,c			;9e8b	79 	y  
9e8c c9				ret			;9e8c	c9 	.  
9e8d cd 8b 24			call 0248bh		;9e8d	cd 8b 24 	. . $  
9e90 fd cb c6 c6		set 0,(iy-03ah)		;9e90	fd cb c6 c6 	. . . .  
9e94 c3 71 1e			jp 01e71h		;9e94	c3 71 1e 	. q .  
9e97			l9e97h: 
9e97 fd cb c6 46		bit 0,(iy-03ah)		;9e97	fd cb c6 46 	. . . F  
9e9b 20 0e			jr nz,l9eabh		;9e9b	20 0e 	  .  
9e9d fd cb c6 86		res 0,(iy-03ah)		;9e9d	fd cb c6 86 	. . . .  
9ea1 cd 8b 24			call 0248bh		;9ea1	cd 8b 24 	. . $  
9ea4 fd 7e e0			ld a,(iy-020h)		;9ea4	fd 7e e0 	. ~ .  
9ea7 b7				or a			;9ea7	b7 	.  
9ea8 c4 7a 23			call nz,0237ah		;9ea8	c4 7a 23 	. z #  
9eab			l9eabh: 
9eab ed 7b 99 1d		ld sp,(01d99h)		;9eab	ed 7b 99 1d 	. { . .  
9eaf c9				ret			;9eaf	c9 	.  
9eb0 cd 53 1f			call 01f53h		;9eb0	cd 53 1f 	. S .  
9eb3 c0				ret nz			;9eb3	c0 	.  
9eb4 fe 2e			cp 02eh		;9eb4	fe 2e 	. .  
9eb6 28 18			jr z,l9ed0h		;9eb6	28 18 	( .  
9eb8 fd cb d5 46		bit 0,(iy-02bh)		;9eb8	fd cb d5 46 	. . . F  
9ebc c0				ret nz			;9ebc	c0 	.  
9ebd fd 36 ce 00		ld (iy-032h),000h		;9ebd	fd 36 ce 00 	. 6 . .  
9ec1 fd 36 cd 00		ld (iy-033h),000h		;9ec1	fd 36 cd 00 	. 6 . .  
9ec5 fe 0d			cp 00dh		;9ec5	fe 0d 	. .  
9ec7 ca 10 25			jp z,02510h		;9ec7	ca 10 25 	. . %  
9eca fe 09			cp 009h		;9eca	fe 09 	. .  
9ecc ca 2c 25			jp z,0252ch		;9ecc	ca 2c 25 	. , %  
9ecf c9				ret			;9ecf	c9 	.  
9ed0			l9ed0h: 
9ed0 fd cb d5 ae		res 5,(iy-02bh)		;9ed0	fd cb d5 ae 	. . . .  
9ed4 cd 22 1f			call 01f22h		;9ed4	cd 22 1f 	. " .  
9ed7 cd 73 20			call 02073h		;9ed7	cd 73 20 	. s    
9eda fd 77 c9			ld (iy-037h),a		;9eda	fd 77 c9 	. w .  
9edd cd 22 1f			call 01f22h		;9edd	cd 22 1f 	. " .  
9ee0 cd 73 20			call 02073h		;9ee0	cd 73 20 	. s    
9ee3 fd 77 ca			ld (iy-036h),a		;9ee3	fd 77 ca 	. w .  
9ee6 21 81 20			ld hl,02081h		;9ee6	21 81 20 	! .    
9ee9			l9ee9h: 
9ee9 7e				ld a,(hl)			;9ee9	7e 	~  
9eea 23				inc hl			;9eea	23 	#  
9eeb b7				or a			;9eeb	b7 	.  
9eec 28 10			jr z,l9efeh		;9eec	28 10 	( .  
9eee fd be c9			cp (iy-037h)		;9eee	fd be c9 	. . .  
9ef1 20 06			jr nz,l9ef9h		;9ef1	20 06 	  .  
9ef3 7e				ld a,(hl)			;9ef3	7e 	~  
9ef4 fd be ca			cp (iy-036h)		;9ef4	fd be ca 	. . .  
9ef7 28 05			jr z,l9efeh		;9ef7	28 05 	( .  
9ef9			l9ef9h: 
9ef9 23				inc hl			;9ef9	23 	#  
9efa 23				inc hl			;9efa	23 	#  
9efb 23				inc hl			;9efb	23 	#  
9efc 18 eb			jr l9ee9h		;9efc	18 eb 	. .  
9efe			l9efeh: 
9efe 23				inc hl			;9efe	23 	#  
9eff 5e				ld e,(hl)			;9eff	5e 	^  
9f00 23				inc hl			;9f00	23 	#  
9f01 56				ld d,(hl)			;9f01	56 	V  
9f02 d5				push de			;9f02	d5 	.  
9f03 11 27 21			ld de,02127h		;9f03	11 27 21 	. ' !  
9f06 ed 52			sbc hl,de		;9f06	ed 52 	. R  
9f08 38 0d			jr c,l9f17h		;9f08	38 0d 	8 .  
9f0a 7d				ld a,l			;9f0a	7d 	}  
9f0b fe 18			cp 018h		;9f0b	fe 18 	. .  
9f0d 38 5c			jr c,l9f6bh		;9f0d	38 5c 	8 \  
9f0f cd 22 1f			call 01f22h		;9f0f	cd 22 1f 	. " .  
9f12 32 b5 25			ld (025b5h),a		;9f12	32 b5 25 	2 . %  
9f15 18 4b			jr l9f62h		;9f15	18 4b 	. K  
9f17			l9f17h: 
9f17 af				xor a			;9f17	af 	.  
9f18 fd 77 cd			ld (iy-033h),a		;9f18	fd 77 cd 	. w .  
9f1b ed 62			sbc hl,hl		;9f1b	ed 62 	. b  
9f1d 22 2c 01			ld (0012ch),hl		;9f1d	22 2c 01 	" , .  
9f20			l9f20h: 
9f20 cd 22 1f			call 01f22h		;9f20	cd 22 1f 	. " .  
9f23 fe 0d			cp 00dh		;9f23	fe 0d 	. .  
9f25 28 44			jr z,l9f6bh		;9f25	28 44 	( D  
9f27 fe 21			cp 021h		;9f27	fe 21 	. !  
9f29 38 f5			jr c,l9f20h		;9f29	38 f5 	8 .  
9f2b fe 2b			cp 02bh		;9f2b	fe 2b 	. +  
9f2d 20 06			jr nz,l9f35h		;9f2d	20 06 	  .  
9f2f fd cb cd c6		set 0,(iy-033h)		;9f2f	fd cb cd c6 	. . . .  
9f33 18 26			jr l9f5bh		;9f33	18 26 	. &  
9f35			l9f35h: 
9f35 fe 2d			cp 02dh		;9f35	fe 2d 	. -  
9f37 20 06			jr nz,l9f3fh		;9f37	20 06 	  .  
9f39 fd cb cd ce		set 1,(iy-033h)		;9f39	fd cb cd ce 	. . . .  
9f3d 18 1c			jr l9f5bh		;9f3d	18 1c 	. .  
9f3f			l9f3fh: 
9f3f d6 30			sub 030h		;9f3f	d6 30 	. 0  
9f41 38 1d			jr c,l9f60h		;9f41	38 1d 	8 .  
9f43 fe 0a			cp 00ah		;9f43	fe 0a 	. .  
9f45 30 19			jr nc,l9f60h		;9f45	30 19 	0 .  
9f47 4f				ld c,a			;9f47	4f 	O  
9f48 af				xor a			;9f48	af 	.  
9f49 47				ld b,a			;9f49	47 	G  
9f4a 2a 2c 01			ld hl,(0012ch)		;9f4a	2a 2c 01 	* , .  
9f4d 29				add hl,hl			;9f4d	29 	)  
9f4e 54				ld d,h			;9f4e	54 	T  
9f4f 5d				ld e,l			;9f4f	5d 	]  
9f50 29				add hl,hl			;9f50	29 	)  
9f51 29				add hl,hl			;9f51	29 	)  
9f52 19				add hl,de			;9f52	19 	.  
9f53 09				add hl,bc			;9f53	09 	.  
9f54 22 2c 01			ld (0012ch),hl		;9f54	22 2c 01 	" , .  
9f57 fd cb cd d6		set 2,(iy-033h)		;9f57	fd cb cd d6 	. . . .  
9f5b			l9f5bh: 
9f5b cd 22 1f			call 01f22h		;9f5b	cd 22 1f 	. " .  
9f5e 18 df			jr l9f3fh		;9f5e	18 df 	. .  
9f60			l9f60h: 
9f60 c6 30			add a,030h		;9f60	c6 30 	. 0  
9f62			l9f62h: 
9f62 fe 0d			cp 00dh		;9f62	fe 0d 	. .  
9f64 28 05			jr z,l9f6bh		;9f64	28 05 	( .  
9f66 cd 22 1f			call 01f22h		;9f66	cd 22 1f 	. " .  
9f69 18 f7			jr l9f62h		;9f69	18 f7 	. .  
9f6b			l9f6bh: 
9f6b 21 00 00			ld hl,00000h		;9f6b	21 00 00 	! . .  
9f6e 22 46 01			ld (00146h),hl		;9f6e	22 46 01 	" F .  
9f71 e1				pop hl			;9f71	e1 	.  
9f72 e9				jp (hl)			;9f72	e9 	.  
9f73 fe 0d			cp 00dh		;9f73	fe 0d 	. .  
9f75 28 06			jr z,l9f7dh		;9f75	28 06 	( .  
9f77 fe 61			cp 061h		;9f77	fe 61 	. a  
9f79 d8				ret c			;9f79	d8 	.  
9f7a d6 20			sub 020h		;9f7a	d6 20 	.    
9f7c c9				ret			;9f7c	c9 	.  
9f7d			l9f7dh: 
9f7d f1				pop af			;9f7d	f1 	.  
9f7e c3 5f 25			jp 0255fh		;9f7e	c3 5f 25 	. _ %  
9f81 4c				ld c,h			;9f81	4c 	L  
9f82 49				ld c,c			;9f82	49 	I  
9f83 69				ld l,c			;9f83	69 	i  
9f84 21 42 52			ld hl,05242h		;9f84	21 42 52 	! B R  
9f87 0a				ld a,(bc)			;9f87	0a 	.  
9f88 25				dec h			;9f88	25 	%  
9f89 53				ld d,e			;9f89	53 	S  
9f8a 54				ld d,h			;9f8a	54 	T  
9f8b ce 21			adc a,021h		;9f8b	ce 21 	. !  
9f8d 53				ld d,e			;9f8d	53 	S  
9f8e 50				ld d,b			;9f8e	50 	P  
9f8f 10 25			djnz l9fb6h		;9f8f	10 25 	. %  
9f91 50				ld d,b			;9f91	50 	P  
9f92 50				ld d,b			;9f92	50 	P  
9f93 2c				inc l			;9f93	2c 	,  
9f94 25				dec h			;9f94	25 	%  
9f95 4c				ld c,h			;9f95	4c 	L  
9f96 4c				ld c,h			;9f96	4c 	L  
9f97 c8				ret z			;9f97	c8 	.  
9f98 24				inc h			;9f98	24 	$  
9f99 49				ld c,c			;9f99	49 	I  
9f9a 4e				ld c,(hl)			;9f9a	4e 	N  
9f9b e1				pop hl			;9f9b	e1 	.  
9f9c 24				inc h			;9f9c	24 	$  
9f9d 54				ld d,h			;9f9d	54 	T  
9f9e 49				ld c,c			;9f9e	49 	I  
9f9f 51				ld d,c			;9f9f	51 	Q  
9fa0 25				dec h			;9fa0	25 	%  
9fa1 4c				ld c,h			;9fa1	4c 	L  
9fa2 53				ld d,e			;9fa2	53 	S  
9fa3 b3				or e			;9fa3	b3 	.  
9fa4 24				inc h			;9fa4	24 	$  
9fa5 51				ld d,c			;9fa5	51 	Q  
9fa6 49				ld c,c			;9fa6	49 	I  
9fa7 04				inc b			;9fa7	04 	.  
9fa8 25				dec h			;9fa8	25 	%  
9fa9 43				ld b,e			;9fa9	43 	C  
9faa 49				ld c,c			;9faa	49 	I  
9fab 04				inc b			;9fab	04 	.  
9fac 25				dec h			;9fac	25 	%  
9fad 53				ld d,e			;9fad	53 	S  
9fae 53				ld d,e			;9fae	53 	S  
9faf f6 24			or 024h		;9faf	f6 24 	. $  
9fb1 44				ld b,h			;9fb1	44 	D  
9fb2 53				ld d,e			;9fb2	53 	S  
9fb3 fd 24			defb 0fdh,024h	;inc iyh		;9fb3	fd 24 	. $  
9fb5 4e				ld c,(hl)			;9fb5	4e 	N  
9fb6			l9fb6h: 
9fb6 41				ld b,c			;9fb6	41 	A  
9fb7 78				ld a,b			;9fb7	78 	x  
9fb8 25				dec h			;9fb8	25 	%  
9fb9 52				ld d,d			;9fb9	52 	R  
9fba 52				ld d,d			;9fba	52 	R  
9fbb 78				ld a,b			;9fbb	78 	x  
9fbc 25				dec h			;9fbc	25 	%  
9fbd 41				ld b,c			;9fbd	41 	A  
9fbe 44				ld b,h			;9fbe	44 	D  
9fbf 82				add a,d			;9fbf	82 	.  
9fc0 25				dec h			;9fc0	25 	%  
9fc1 46				ld b,(hl)			;9fc1	46 	F  
9fc2 4a				ld c,d			;9fc2	4a 	J  
9fc3 82				add a,d			;9fc3	82 	.  
9fc4 25				dec h			;9fc4	25 	%  
9fc5 49				ld c,c			;9fc5	49 	I  
9fc6 47				ld b,a			;9fc6	47 	G  
9fc7 8c				adc a,h			;9fc7	8c 	.  
9fc8 25				dec h			;9fc8	25 	%  
9fc9 4d				ld c,l			;9fc9	4d 	M  
9fca 54				ld d,h			;9fca	54 	T  
9fcb d9				exx			;9fcb	d9 	.  
9fcc 1e 54			ld e,054h		;9fcc	1e 54 	. T  
9fce 53				ld d,e			;9fce	53 	S  
9fcf d9				exx			;9fcf	d9 	.  
9fd0 1e 48			ld e,048h		;9fd0	1e 48 	. H  
9fd2 4d				ld c,l			;9fd2	4d 	M  
9fd3 e4 1e 48			call po,0481eh		;9fd3	e4 1e 48 	. . H  
9fd6 53				ld d,e			;9fd6	53 	S  
9fd7 e4 1e 4d			call po,04d1eh		;9fd7	e4 1e 4d 	. . M  
9fda 42				ld b,d			;9fda	42 	B  
9fdb ef				rst 28h			;9fdb	ef 	.  
9fdc 1e 42			ld e,042h		;9fdc	1e 42 	. B  
9fde 53				ld d,e			;9fde	53 	S  
9fdf ef				rst 28h			;9fdf	ef 	.  
9fe0 1e 50			ld e,050h		;9fe0	1e 50 	. P  
9fe2 4c				ld c,h			;9fe2	4c 	L  
9fe3 fa 1e 50			jp m,0501eh		;9fe3	fa 1e 50 	. . P  
9fe6 4f				ld c,a			;9fe6	4f 	O  
9fe7 10 1f			djnz $+33		;9fe7	10 1f 	. .  
9fe9 4c				ld c,h			;9fe9	4c 	L  
9fea 4d				ld c,l			;9fea	4d 	M  
9feb 10 1f			djnz $+33		;9feb	10 1f 	. .  
9fed 43				ld b,e			;9fed	43 	C  
9fee 50				ld d,b			;9fee	50 	P  
9fef 91				sub c			;9fef	91 	.  
9ff0 25				dec h			;9ff0	25 	%  
9ff1 42				ld b,d			;9ff1	42 	B  
9ff2 50				ld d,b			;9ff2	50 	P  
9ff3 2a 26 43			ld hl,(04326h)		;9ff3	2a 26 43 	* & C  
9ff6 45				ld b,l			;9ff6	45 	E  
9ff7 60				ld h,b			;9ff7	60 	`  
9ff8 26 52			ld h,052h		;9ff8	26 52 	& R  
9ffa 4c				ld c,h			;9ffa	4c 	L  
9ffb 5c				ld e,h			;9ffb	5c 	\  
9ffc 26 49			ld h,049h		;9ffc	26 49 	& I  
9ffe 46				ld b,(hl)			;9ffe	46 	F  
9fff 5c				ld e,h			;9fff	5c 	\  
a000 26 4f			ld h,04fh		;a000	26 4f 	& O  
a002 50				ld d,b			;a002	50 	P  
a003 df				rst 18h			;a003	df 	.  
a004 25				dec h			;a004	25 	%  
a005 50				ld d,b			;a005	50 	P  
a006 41				ld b,c			;a006	41 	A  
a007 11 26 50			ld de,05026h		;a007	11 26 50 	. & P  
a00a 4e				ld c,(hl)			;a00a	4e 	N  
a00b e6 25			and 025h		;a00b	e6 25 	. %  
a00d 42				ld b,d			;a00d	42 	B  
a00e 45				ld b,l			;a00e	45 	E  
a00f 8d				adc a,l			;a00f	8d 	.  
a010 1f				rra			;a010	1f 	.  
a011 45				ld b,l			;a011	45 	E  
a012 4e				ld c,(hl)			;a012	4e 	N  
a013 9d				sbc a,l			;a013	9d 	.  
a014 1f				rra			;a014	1f 	.  
a015 46				ld b,(hl)			;a015	46 	F  
a016 4d				ld c,l			;a016	4d 	M  
a017 05				dec b			;a017	05 	.  
a018 1f				rra			;a018	1f 	.  
a019 46				ld b,(hl)			;a019	46 	F  
a01a 53				ld d,e			;a01a	53 	S  
a01b 05				dec b			;a01b	05 	.  
a01c 1f				rra			;a01c	1f 	.  
a01d 51				ld d,c			;a01d	51 	Q  
a01e 59				ld e,c			;a01e	59 	Y  
a01f 42				ld b,d			;a01f	42 	B  
a020 28 51			jr z,la073h		;a020	28 51 	( Q  
a022 4e				ld c,(hl)			;a022	4e 	N  
a023 49				ld c,c			;a023	49 	I  
a024 28 48			jr z,$+74		;a024	28 48 	( H  
a026 45				ld b,l			;a026	45 	E  
a027 ac				xor h			;a027	ac 	.  
a028 26 44			ld h,044h		;a028	26 44 	& D  
a02a 48				ld c,b			;a02a	48 	H  
a02b d5				push de			;a02b	d5 	.  
a02c 26 4d			ld h,04dh		;a02c	26 4d 	& M  
a02e 48				ld c,b			;a02e	48 	H  
a02f d5				push de			;a02f	d5 	.  
a030 26 44			ld h,044h		;a030	26 44 	& D  
a032 46				ld b,(hl)			;a032	46 	F  
a033 d0				ret nc			;a033	d0 	.  
a034 26 4d			ld h,04dh		;a034	26 4d 	& M  
a036 46				ld b,(hl)			;a036	46 	F  
a037 d0				ret nc			;a037	d0 	.  
a038 26 46			ld h,046h		;a038	26 46 	& F  
a03a 4f				ld c,a			;a03a	4f 	O  
a03b d0				ret nc			;a03b	d0 	.  
a03c 26 50			ld h,050h		;a03c	26 50 	& P  
a03e 43				ld b,e			;a03e	43 	C  
a03f a4				and h			;a03f	a4 	.  
a040 25				dec h			;a040	25 	%  
a041 43				ld b,e			;a041	43 	C  
a042 43				ld b,e			;a042	43 	C  
a043 e4 27 55			call po,05527h		;a043	e4 27 55 	. ' U  
a046 43				ld b,e			;a046	43 	C  
a047 fa 27 4e			jp m,04e27h		;a047	fa 27 4e 	. ' N  
a04a 43				ld b,e			;a04a	43 	C  
a04b 30 28			jr nc,la075h		;a04b	30 28 	0 (  
a04d 42				ld b,d			;a04d	42 	B  
a04e 43				ld b,e			;a04e	43 	C  
a04f 39				add hl,sp			;a04f	39 	9  
a050 28 45			jr z,$+71		;a050	28 45 	( E  
a052 31 03 28			ld sp,02803h		;a052	31 03 28 	1 . (  
a055 45				ld b,l			;a055	45 	E  
a056 32 0c 28			ld (0280ch),a		;a056	32 0c 28 	2 . (  
a059 45				ld b,l			;a059	45 	E  
a05a 33				inc sp			;a05a	33 	3  
a05b 15				dec d			;a05b	15 	.  
a05c 28 45			jr z,$+71		;a05c	28 45 	( E  
a05e 34				inc (hl)			;a05e	34 	4  
a05f 1e 28			ld e,028h		;a05f	1e 28 	. (  
a061 45				ld b,l			;a061	45 	E  
a062 35				dec (hl)			;a062	35 	5  
a063 27				daa			;a063	27 	'  
a064 28 00			jr z,la066h		;a064	28 00 	( .  
a066			la066h: 
a066 00				nop			;a066	00 	.  
a067 5f				ld e,a			;a067	5f 	_  
a068 25				dec h			;a068	25 	%  
a069 cd 8b 24			call 0248bh		;a069	cd 8b 24 	. . $  
a06c fd cb d5 c6		set 0,(iy-02bh)		;a06c	fd cb d5 c6 	. . . .  
a070			la070h: 
a070 cd b0 1f			call 01fb0h		;a070	cd b0 1f 	. . .  
a073			la073h: 
a073 fe 0d			cp 00dh		;a073	fe 0d 	. .  
a075			la075h: 
a075 28 18			jr z,la08fh		;a075	28 18 	( .  
a077 f5				push af			;a077	f5 	.  
a078 cd db 22			call 022dbh		;a078	cd db 22 	. . "  
a07b f1				pop af			;a07b	f1 	.  
a07c			la07ch: 
a07c fe 09			cp 009h		;a07c	fe 09 	. .  
a07e 20 0f			jr nz,la08fh		;a07e	20 0f 	  .  
a080			la080h: 
a080 3e 20			ld a,020h		;a080	3e 20 	>    
a082 cd 1d 23			call 0231dh		;a082	cd 1d 23 	. . #  
a085 fd 7e b6			ld a,(iy-04ah)		;a085	fd 7e b6 	. ~ .  
a088 fd a6 f5			and (iy-00bh)		;a088	fd a6 f5 	. . .  
a08b 20 f3			jr nz,la080h		;a08b	20 f3 	  .  
a08d 18 07			jr la096h		;a08d	18 07 	. .  
a08f			la08fh: 
a08f cd 1d 23			call 0231dh		;a08f	cd 1d 23 	. . #  
a092 fe 0d			cp 00dh		;a092	fe 0d 	. .  
a094 28 da			jr z,la070h		;a094	28 da 	( .  
a096			la096h: 
a096 cd b0 1f			call 01fb0h		;a096	cd b0 1f 	. . .  
a099 18 e1			jr la07ch		;a099	18 e1 	. .  
a09b cd b0 1f			call 01fb0h		;a09b	cd b0 1f 	. . .  
a09e fe 09			cp 009h		;a09e	fe 09 	. .  
a0a0 20 02			jr nz,la0a4h		;a0a0	20 02 	  .  
a0a2			la0a2h: 
a0a2 3e 20			ld a,020h		;a0a2	3e 20 	>    
a0a4			la0a4h: 
a0a4 fe 0d			cp 00dh		;a0a4	fe 0d 	. .  
a0a6 28 fa			jr z,la0a2h		;a0a6	28 fa 	( .  
a0a8 c9				ret			;a0a8	c9 	.  
a0a9 2a 95 1d			ld hl,(01d95h)		;a0a9	2a 95 1d 	* . .  
a0ac 77				ld (hl),a			;a0ac	77 	w  
a0ad 23				inc hl			;a0ad	23 	#  
a0ae 36 00			ld (hl),000h		;a0ae	36 00 	6 .  
a0b0 22 95 1d			ld (01d95h),hl		;a0b0	22 95 1d 	" . .  
a0b3 c9				ret			;a0b3	c9 	.  
a0b4 fd 7e d3			ld a,(iy-02dh)		;a0b4	fd 7e d3 	. ~ .  
a0b7 fd 96 d0			sub (iy-030h)		;a0b7	fd 96 d0 	. . .  
a0ba 3c				inc a			;a0ba	3c 	<  
a0bb fd 77 f4			ld (iy-00ch),a		;a0bb	fd 77 f4 	. w .  
a0be 2a 05 1d			ld hl,(01d05h)		;a0be	2a 05 1d 	* . .  
a0c1 22 95 1d			ld (01d95h),hl		;a0c1	22 95 1d 	" . .  
a0c4 36 00			ld (hl),000h		;a0c4	36 00 	6 .  
a0c6 fd 36 d2 00		ld (iy-02eh),000h		;a0c6	fd 36 d2 00 	. 6 . .  
a0ca c9				ret			;a0ca	c9 	.  
a0cb cd b4 21			call 021b4h		;a0cb	cd b4 21 	. . !  
a0ce			la0ceh: 
a0ce fd cb d5 46		bit 0,(iy-02bh)		;a0ce	fd cb d5 46 	. . . F  
a0d2 c4 b4 21			call nz,021b4h		;a0d2	c4 b4 21 	. . !  
a0d5 fd cb d5 86		res 0,(iy-02bh)		;a0d5	fd cb d5 86 	. . . .  
a0d9 2a 93 1d			ld hl,(01d93h)		;a0d9	2a 93 1d 	* . .  
a0dc 22 97 1d			ld (01d97h),hl		;a0dc	22 97 1d 	" . .  
a0df ed 7b 99 1d		ld sp,(01d99h)		;a0df	ed 7b 99 1d 	. { . .  
a0e3			la0e3h: 
a0e3 cd 9b 21			call 0219bh		;a0e3	cd 9b 21 	. . !  
a0e6 b7				or a			;a0e6	b7 	.  
a0e7 f2 ef 21			jp p,021efh		;a0e7	f2 ef 21 	. . !  
a0ea cd a9 21			call 021a9h		;a0ea	cd a9 21 	. . !  
a0ed 18 f4			jr la0e3h		;a0ed	18 f4 	. .  
a0ef fe 20			cp 020h		;a0ef	fe 20 	.    
a0f1 20 05			jr nz,la0f8h		;a0f1	20 05 	  .  
a0f3 18 d9			jr la0ceh		;a0f3	18 d9 	. .  
a0f5			la0f5h: 
a0f5 cd 9b 21			call 0219bh		;a0f5	cd 9b 21 	. . !  
a0f8			la0f8h: 
a0f8 cd a9 21			call 021a9h		;a0f8	cd a9 21 	. . !  
a0fb fe 20			cp 020h		;a0fb	fe 20 	.    
a0fd 28 0e			jr z,la10dh		;a0fd	28 0e 	( .  
a0ff b7				or a			;a0ff	b7 	.  
a100 fa f5 21			jp m,021f5h		;a100	fa f5 21 	. . !  
a103 fd 77 f2			ld (iy-00eh),a		;a103	fd 77 f2 	. w .  
a106 fd 35 f4			dec (iy-00ch)		;a106	fd 35 f4 	. 5 .  
a109 28 20			jr z,la12bh		;a109	28 20 	(    
a10b 18 e8			jr la0f5h		;a10b	18 e8 	. .  
a10d			la10dh: 
a10d fd 34 d2			inc (iy-02eh)		;a10d	fd 34 d2 	. 4 .  
a110 fd 7e f2			ld a,(iy-00eh)		;a110	fd 7e f2 	. ~ .  
a113 fd 77 f3			ld (iy-00dh),a		;a113	fd 77 f3 	. w .  
a116 fd 7e f4			ld a,(iy-00ch)		;a116	fd 7e f4 	. ~ .  
a119 3d				dec a			;a119	3d 	=  
a11a fd 77 c8			ld (iy-038h),a		;a11a	fd 77 c8 	. w .  
a11d cd cd 22			call 022cdh		;a11d	cd cd 22 	. . "  
a120 2a 93 1d			ld hl,(01d93h)		;a120	2a 93 1d 	* . .  
a123 22 97 1d			ld (01d97h),hl		;a123	22 97 1d 	" . .  
a126 fd 35 f4			dec (iy-00ch)		;a126	fd 35 f4 	. 5 .  
a129 20 b8			jr nz,la0e3h		;a129	20 b8 	  .  
a12b			la12bh: 
a12b fd 7e d2			ld a,(iy-02eh)		;a12b	fd 7e d2 	. ~ .  
a12e b7				or a			;a12e	b7 	.  
a12f ca be 22			jp z,022beh		;a12f	ca be 22 	. . "  
a132 3d				dec a			;a132	3d 	=  
a133 5f				ld e,a			;a133	5f 	_  
a134 28 35			jr z,la16bh		;a134	28 35 	( 5  
a136 af				xor a			;a136	af 	.  
a137 fd 77 cc			ld (iy-034h),a		;a137	fd 77 cc 	. w .  
a13a fd cb d5 4e		bit 1,(iy-02bh)		;a13a	fd cb d5 4e 	. . . N  
a13e 20 28			jr nz,la168h		;a13e	20 28 	  (  
a140 fd 7e f3			ld a,(iy-00dh)		;a140	fd 7e f3 	. ~ .  
a143 fd be e1			cp (iy-01fh)		;a143	fd be e1 	. . .  
a146 20 03			jr nz,la14bh		;a146	20 03 	  .  
a148 fd 34 c8			inc (iy-038h)		;a148	fd 34 c8 	. 4 .  
a14b			la14bh: 
a14b fd 7e c8			ld a,(iy-038h)		;a14b	fd 7e c8 	. ~ .  
a14e			la14eh: 
a14e 93				sub e			;a14e	93 	.  
a14f 38 05			jr c,la156h		;a14f	38 05 	8 .  
a151 fd 34 cc			inc (iy-034h)		;a151	fd 34 cc 	. 4 .  
a154 18 f8			jr la14eh		;a154	18 f8 	. .  
a156			la156h: 
a156 83				add a,e			;a156	83 	.  
a157 fd cb d8 7e		bit 7,(iy-028h)		;a157	fd cb d8 7e 	. . . ~  
a15b 28 08			jr z,la165h		;a15b	28 08 	( .  
a15d b7				or a			;a15d	b7 	.  
a15e 28 08			jr z,la168h		;a15e	28 08 	( .  
a160 fd 34 cc			inc (iy-034h)		;a160	fd 34 cc 	. 4 .  
a163 18 03			jr la168h		;a163	18 03 	. .  
a165			la165h: 
a165 93				sub e			;a165	93 	.  
a166 ed 44			neg		;a166	ed 44 	. D  
a168			la168h: 
a168 fd 77 cb			ld (iy-035h),a		;a168	fd 77 cb 	. w .  
a16b			la16bh: 
a16b cd db 22			call 022dbh		;a16b	cd db 22 	. . "  
a16e 2a 05 1d			ld hl,(01d05h)		;a16e	2a 05 1d 	* . .  
a171 22 95 1d			ld (01d95h),hl		;a171	22 95 1d 	" . .  
a174			la174h: 
a174 7e				ld a,(hl)			;a174	7e 	~  
a175 23				inc hl			;a175	23 	#  
a176 b7				or a			;a176	b7 	.  
a177 28 29			jr z,la1a2h		;a177	28 29 	( )  
a179 fe 20			cp 020h		;a179	fe 20 	.    
a17b 28 05			jr z,la182h		;a17b	28 05 	( .  
a17d cd 1d 23			call 0231dh		;a17d	cd 1d 23 	. . #  
a180 18 f2			jr la174h		;a180	18 f2 	. .  
a182			la182h: 
a182 fd 35 d2			dec (iy-02eh)		;a182	fd 35 d2 	. 5 .  
a185 28 1b			jr z,la1a2h		;a185	28 1b 	( .  
a187 fd 46 cc			ld b,(iy-034h)		;a187	fd 46 cc 	. F .  
a18a 04				inc b			;a18a	04 	.  
a18b			la18bh: 
a18b 3e 20			ld a,020h		;a18b	3e 20 	>    
a18d cd 1d 23			call 0231dh		;a18d	cd 1d 23 	. . #  
a190 10 f9			djnz la18bh		;a190	10 f9 	. .  
a192 fd 35 cb			dec (iy-035h)		;a192	fd 35 cb 	. 5 .  
a195 20 dd			jr nz,la174h		;a195	20 dd 	  .  
a197 fd 7e cc			ld a,(iy-034h)		;a197	fd 7e cc 	. ~ .  
a19a fd 86 d8			add a,(iy-028h)		;a19a	fd 86 d8 	. . .  
a19d fd 77 cc			ld (iy-034h),a		;a19d	fd 77 cc 	. w .  
a1a0 18 d2			jr la174h		;a1a0	18 d2 	. .  
a1a2			la1a2h: 
a1a2 3e 0d			ld a,00dh		;a1a2	3e 0d 	> .  
a1a4 cd 1d 23			call 0231dh		;a1a4	cd 1d 23 	. . #  
a1a7 fd 7e d8			ld a,(iy-028h)		;a1a7	fd 7e d8 	. ~ .  
a1aa ed 44			neg		;a1aa	ed 44 	. D  
a1ac fd 77 d8			ld (iy-028h),a		;a1ac	fd 77 d8 	. w .  
a1af cd d4 22			call 022d4h		;a1af	cd d4 22 	. . "  
a1b2 2a 97 1d			ld hl,(01d97h)		;a1b2	2a 97 1d 	* . .  
a1b5 22 93 1d			ld (01d93h),hl		;a1b5	22 93 1d 	" . .  
a1b8 cd b4 21			call 021b4h		;a1b8	cd b4 21 	. . !  
a1bb c3 df 21			jp 021dfh		;a1bb	c3 df 21 	. . !  
a1be 2a 93 1d			ld hl,(01d93h)		;a1be	2a 93 1d 	* . .  
a1c1 2b				dec hl			;a1c1	2b 	+  
a1c2 22 97 1d			ld (01d97h),hl		;a1c2	22 97 1d 	" . .  
a1c5 2a 95 1d			ld hl,(01d95h)		;a1c5	2a 95 1d 	* . .  
a1c8 2b				dec hl			;a1c8	2b 	+  
a1c9 36 00			ld (hl),000h		;a1c9	36 00 	6 .  
a1cb 18 9e			jr la16bh		;a1cb	18 9e 	. .  
a1cd fd 7e e3			ld a,(iy-01dh)		;a1cd	fd 7e e3 	. ~ .  
a1d0 fd 77 f6			ld (iy-00ah),a		;a1d0	fd 77 f6 	. w .  
a1d3 c9				ret			;a1d3	c9 	.  
a1d4 fd 7e f6			ld a,(iy-00ah)		;a1d4	fd 7e f6 	. ~ .  
a1d7 fd 77 e3			ld (iy-01dh),a		;a1d7	fd 77 e3 	. w .  
a1da c9				ret			;a1da	c9 	.  
a1db fd 7e dd			ld a,(iy-023h)		;a1db	fd 7e dd 	. ~ .  
a1de fd 86 d0			add a,(iy-030h)		;a1de	fd 86 d0 	. . .  
a1e1 b7				or a			;a1e1	b7 	.  
a1e2 28 08			jr z,la1ech		;a1e2	28 08 	( .  
a1e4 47				ld b,a			;a1e4	47 	G  
a1e5			la1e5h: 
a1e5 3e 20			ld a,020h		;a1e5	3e 20 	>    
a1e7 cd 1d 23			call 0231dh		;a1e7	cd 1d 23 	. . #  
a1ea 10 f9			djnz la1e5h		;a1ea	10 f9 	. .  
a1ec			la1ech: 
a1ec fd 36 f5 00		ld (iy-00bh),000h		;a1ec	fd 36 f5 00 	. 6 . .  
a1f0 fd 7e d4			ld a,(iy-02ch)		;a1f0	fd 7e d4 	. ~ .  
a1f3 fd 77 d0			ld (iy-030h),a		;a1f3	fd 77 d0 	. w .  
a1f6 c9				ret			;a1f6	c9 	.  
a1f7 47				ld b,a			;a1f7	47 	G  
a1f8 fd cb cd 4e		bit 1,(iy-033h)		;a1f8	fd cb cd 4e 	. . . N  
a1fc 20 0b			jr nz,la209h		;a1fc	20 0b 	  .  
a1fe fd cb cd 46		bit 0,(iy-033h)		;a1fe	fd cb cd 46 	. . . F  
a202 28 0c			jr z,la210h		;a202	28 0c 	( .  
a204 fd 7e ce			ld a,(iy-032h)		;a204	fd 7e ce 	. ~ .  
a207 80				add a,b			;a207	80 	.  
a208 c9				ret			;a208	c9 	.  
a209			la209h: 
a209 78				ld a,b			;a209	78 	x  
a20a fd 96 ce			sub (iy-032h)		;a20a	fd 96 ce 	. . .  
a20d f0				ret p			;a20d	f0 	.  
a20e			la20eh: 
a20e af				xor a			;a20e	af 	.  
a20f c9				ret			;a20f	c9 	.  
a210			la210h: 
a210 fd 7e ce			ld a,(iy-032h)		;a210	fd 7e ce 	. ~ .  
a213 b7				or a			;a213	b7 	.  
a214 c0				ret nz			;a214	c0 	.  
a215 fd cb cd 56		bit 2,(iy-033h)		;a215	fd cb cd 56 	. . . V  
a219 20 f3			jr nz,la20eh		;a219	20 f3 	  .  
a21b 80				add a,b			;a21b	80 	.  
a21c c9				ret			;a21c	c9 	.  
a21d d5				push de			;a21d	d5 	.  
a21e e5				push hl			;a21e	e5 	.  
a21f c5				push bc			;a21f	c5 	.  
a220 f5				push af			;a220	f5 	.  
a221 fd 7e e0			ld a,(iy-020h)		;a221	fd 7e e0 	. ~ .  
a224 b7				or a			;a224	b7 	.  
a225 cc b6 25			call z,025b6h		;a225	cc b6 25 	. . %  
a228 f1				pop af			;a228	f1 	.  
a229 f5				push af			;a229	f5 	.  
a22a fe 0d			cp 00dh		;a22a	fe 0d 	. .  
a22c 28 0c			jr z,la23ah		;a22c	28 0c 	( .  
a22e cd b2 23			call 023b2h		;a22e	cd b2 23 	. . #  
a231 cb 7f			bit 7,a		;a231	cb 7f 	.   
a233 20 17			jr nz,la24ch		;a233	20 17 	  .  
a235 fd 34 f5			inc (iy-00bh)		;a235	fd 34 f5 	. 4 .  
a238 18 12			jr la24ch		;a238	18 12 	. .  
a23a			la23ah: 
a23a fd 46 d7			ld b,(iy-029h)		;a23a	fd 46 d7 	. F .  
a23d			la23dh: 
a23d 3e 0d			ld a,00dh		;a23d	3e 0d 	> .  
a23f cd b2 23			call 023b2h		;a23f	cd b2 23 	. . #  
a242 fd 7e e0			ld a,(iy-020h)		;a242	fd 7e e0 	. ~ .  
a245 fd 96 f0			sub (iy-010h)		;a245	fd 96 f0 	. . .  
a248 30 07			jr nc,la251h		;a248	30 07 	0 .  
a24a 10 f1			djnz la23dh		;a24a	10 f1 	. .  
a24c			la24ch: 
a24c f1				pop af			;a24c	f1 	.  
a24d c1				pop bc			;a24d	c1 	.  
a24e			la24eh: 
a24e e1				pop hl			;a24e	e1 	.  
a24f d1				pop de			;a24f	d1 	.  
a250 c9				ret			;a250	c9 	.  
a251			la251h: 
a251 cd 5a 23			call 0235ah		;a251	cd 5a 23 	. Z #  
a254 f1				pop af			;a254	f1 	.  
a255 c1				pop bc			;a255	c1 	.  
a256 06 01			ld b,001h		;a256	06 01 	. .  
a258 18 f4			jr la24eh		;a258	18 f4 	. .  
a25a cd 7a 23			call 0237ah		;a25a	cd 7a 23 	. z #  
a25d fd cb d1 7e		bit 7,(iy-02fh)		;a25d	fd cb d1 7e 	. . . ~  
a261 c8				ret z			;a261	c8 	.  
a262 fd cb e4 46		bit 0,(iy-01ch)		;a262	fd cb e4 46 	. . . F  
a266 c0				ret nz			;a266	c0 	.  
a267			la267h: 
a267 f7				rst 30h			;a267	f7 	.  
a268 21 fe 0d			ld hl,00dfeh		;a268	21 fe 0d 	! . .  
a26b 20 fa			jr nz,la267h		;a26b	20 fa 	  .  
a26d c9				ret			;a26d	c9 	.  
a26e			la26eh: 
a26e fd 7e e0			ld a,(iy-020h)		;a26e	fd 7e e0 	. ~ .  
a271 91				sub c			;a271	91 	.  
a272 f0				ret p			;a272	f0 	.  
a273 3e 0d			ld a,00dh		;a273	3e 0d 	> .  
a275 cd b2 23			call 023b2h		;a275	cd b2 23 	. . #  
a278 18 f4			jr la26eh		;a278	18 f4 	. .  
a27a fd 7e e0			ld a,(iy-020h)		;a27a	fd 7e e0 	. ~ .  
a27d b7				or a			;a27d	b7 	.  
a27e cc b6 25			call z,025b6h		;a27e	cc b6 25 	. . %  
a281 fd 4e ef			ld c,(iy-011h)		;a281	fd 4e ef 	. N .  
a284 cd 6e 23			call 0236eh		;a284	cd 6e 23 	. n #  
a287 fd cb d5 7e		bit 7,(iy-02bh)		;a287	fd cb d5 7e 	. . . ~  
a28b 20 06			jr nz,la293h		;a28b	20 06 	  .  
a28d 2a 9b 1d			ld hl,(01d9bh)		;a28d	2a 9b 1d 	* . .  
a290 cd da 26			call 026dah		;a290	cd da 26 	. . &  
a293			la293h: 
a293 2a 3c 01			ld hl,(0013ch)		;a293	2a 3c 01 	* < .  
a296 23				inc hl			;a296	23 	#  
a297 22 3c 01			ld (0013ch),hl		;a297	22 3c 01 	" < .  
a29a cd be 27			call 027beh		;a29a	cd be 27 	. . '  
a29d fd 4e d9			ld c,(iy-027h)		;a29d	fd 4e d9 	. N .  
a2a0 cd 6e 23			call 0236eh		;a2a0	cd 6e 23 	. n #  
a2a3 fd 36 e0 00		ld (iy-020h),000h		;a2a3	fd 36 e0 00 	. 6 . .  
a2a7 2a c3 1d			ld hl,(01dc3h)		;a2a7	2a c3 1d 	* . .  
a2aa cd 7e 24			call 0247eh		;a2aa	cd 7e 24 	. ~ $  
a2ad c9				ret			;a2ad	c9 	.  
a2ae f5				push af			;a2ae	f5 	.  
a2af c3 4f 24			jp 0244fh		;a2af	c3 4f 24 	. O $  
a2b2 cb 7f			bit 7,a		;a2b2	cb 7f 	.   
a2b4 28 41			jr z,la2f7h		;a2b4	28 41 	( A  
a2b6 fe ff			cp 0ffh		;a2b6	fe ff 	. .  
a2b8 20 03			jr nz,la2bdh		;a2b8	20 03 	  .  
a2ba fd 34 e8			inc (iy-018h)		;a2ba	fd 34 e8 	. 4 .  
a2bd			la2bdh: 
a2bd fe fe			cp 0feh		;a2bd	fe fe 	. .  
a2bf 20 03			jr nz,la2c4h		;a2bf	20 03 	  .  
a2c1 fd 34 e9			inc (iy-017h)		;a2c1	fd 34 e9 	. 4 .  
a2c4			la2c4h: 
a2c4 fd cb d5 76		bit 6,(iy-02bh)		;a2c4	fd cb d5 76 	. . . v  
a2c8 c0				ret nz			;a2c8	c0 	.  
a2c9 fe fd			cp 0fdh		;a2c9	fe fd 	. .  
a2cb 20 07			jr nz,la2d4h		;a2cb	20 07 	  .  
a2cd 2a c5 1d			ld hl,(01dc5h)		;a2cd	2a c5 1d 	* . .  
a2d0			la2d0h: 
a2d0 cd 7e 24			call 0247eh		;a2d0	cd 7e 24 	. ~ $  
a2d3 c9				ret			;a2d3	c9 	.  
a2d4			la2d4h: 
a2d4 fe fc			cp 0fch		;a2d4	fe fc 	. .  
a2d6 20 05			jr nz,la2ddh		;a2d6	20 05 	  .  
a2d8 2a c7 1d			ld hl,(01dc7h)		;a2d8	2a c7 1d 	* . .  
a2db 18 f3			jr la2d0h		;a2db	18 f3 	. .  
a2dd			la2ddh: 
a2dd fe fb			cp 0fbh		;a2dd	fe fb 	. .  
a2df 20 05			jr nz,la2e6h		;a2df	20 05 	  .  
a2e1 2a c9 1d			ld hl,(01dc9h)		;a2e1	2a c9 1d 	* . .  
a2e4 18 ea			jr la2d0h		;a2e4	18 ea 	. .  
a2e6			la2e6h: 
a2e6 fe fa			cp 0fah		;a2e6	fe fa 	. .  
a2e8 20 05			jr nz,la2efh		;a2e8	20 05 	  .  
a2ea 2a cb 1d			ld hl,(01dcbh)		;a2ea	2a cb 1d 	* . .  
a2ed 18 e1			jr la2d0h		;a2ed	18 e1 	. .  
a2ef			la2efh: 
a2ef fe f9			cp 0f9h		;a2ef	fe f9 	. .  
a2f1 c0				ret nz			;a2f1	c0 	.  
a2f2 2a cd 1d			ld hl,(01dcdh)		;a2f2	2a cd 1d 	* . .  
a2f5 18 d9			jr la2d0h		;a2f5	18 d9 	. .  
a2f7			la2f7h: 
a2f7 fe 21			cp 021h		;a2f7	fe 21 	. !  
a2f9 38 3c			jr c,la337h		;a2f9	38 3c 	8 <  
a2fb fd cb d5 76		bit 6,(iy-02bh)		;a2fb	fd cb d5 76 	. . . v  
a2ff 20 36			jr nz,la337h		;a2ff	20 36 	  6  
a301 fd cb d1 4e		bit 1,(iy-02fh)		;a301	fd cb d1 4e 	. . . N  
a305 20 30			jr nz,la337h		;a305	20 30 	  0  
a307 fd cb e8 46		bit 0,(iy-018h)		;a307	fd cb e8 46 	. . . F  
a30b 28 06			jr z,la313h		;a30b	28 06 	( .  
a30d 2a bb 1d			ld hl,(01dbbh)		;a30d	2a bb 1d 	* . .  
a310 cd 7e 24			call 0247eh		;a310	cd 7e 24 	. ~ $  
a313			la313h: 
a313 fd cb e9 46		bit 0,(iy-017h)		;a313	fd cb e9 46 	. . . F  
a317 28 1e			jr z,la337h		;a317	28 1e 	( .  
a319 fd be e1			cp (iy-01fh)		;a319	fd be e1 	. . .  
a31c 28 19			jr z,la337h		;a31c	28 19 	( .  
a31e 2a bd 1d			ld hl,(01dbdh)		;a31e	2a bd 1d 	* . .  
a321 cd 7e 24			call 0247eh		;a321	cd 7e 24 	. ~ $  
a324 cd 37 24			call 02437h		;a324	cd 37 24 	. 7 $  
a327 2a bf 1d			ld hl,(01dbfh)		;a327	2a bf 1d 	* . .  
a32a cd 7e 24			call 0247eh		;a32a	cd 7e 24 	. ~ $  
a32d cd 37 24			call 02437h		;a32d	cd 37 24 	. 7 $  
a330 2a c1 1d			ld hl,(01dc1h)		;a330	2a c1 1d 	* . .  
a333 cd 7e 24			call 0247eh		;a333	cd 7e 24 	. ~ $  
a336 c9				ret			;a336	c9 	.  
a337			la337h: 
a337 f5				push af			;a337	f5 	.  
a338 fe 0d			cp 00dh		;a338	fe 0d 	. .  
a33a 20 0c			jr nz,la348h		;a33a	20 0c 	  .  
a33c fd 7e e0			ld a,(iy-020h)		;a33c	fd 7e e0 	. ~ .  
a33f b7				or a			;a33f	b7 	.  
a340 3a cf 1d			ld a,(01dcfh)		;a340	3a cf 1d 	: . .  
a343 cc 37 24			call z,02437h		;a343	cc 37 24 	. 7 $  
a346 f1				pop af			;a346	f1 	.  
a347 f5				push af			;a347	f5 	.  
a348			la348h: 
a348 fd be e1			cp (iy-01fh)		;a348	fd be e1 	. . .  
a34b 20 02			jr nz,la34fh		;a34b	20 02 	  .  
a34d 3e 20			ld a,020h		;a34d	3e 20 	>    
a34f			la34fh: 
a34f fd cb e4 46		bit 0,(iy-01ch)		;a34f	fd cb e4 46 	. . . F  
a353 20 13			jr nz,la368h		;a353	20 13 	  .  
a355 fd cb d1 46		bit 0,(iy-02fh)		;a355	fd cb d1 46 	. . . F  
a359 28 1a			jr z,la375h		;a359	28 1a 	( .  
a35b fd cb d1 4e		bit 1,(iy-02fh)		;a35b	fd cb d1 4e 	. . . N  
a35f 20 19			jr nz,la37ah		;a35f	20 19 	  .  
a361 f7				rst 30h			;a361	f7 	.  
a362 05				dec b			;a362	05 	.  
a363 f5				push af			;a363	f5 	.  
a364 cd 00 19			call 01900h		;a364	cd 00 19 	. . .  
a367 f1				pop af			;a367	f1 	.  
a368			la368h: 
a368 fe 0d			cp 00dh		;a368	fe 0d 	. .  
a36a 20 07			jr nz,la373h		;a36a	20 07 	  .  
a36c fd 34 e0			inc (iy-020h)		;a36c	fd 34 e0 	. 4 .  
a36f 3e 0a			ld a,00ah		;a36f	3e 0a 	> .  
a371 18 dc			jr la34fh		;a371	18 dc 	. .  
a373			la373h: 
a373 f1				pop af			;a373	f1 	.  
a374 c9				ret			;a374	c9 	.  
a375			la375h: 
a375 cd 9e 1b			call 01b9eh		;a375	cd 9e 1b 	. . .  
a378 18 ee			jr la368h		;a378	18 ee 	. .  
a37a			la37ah: 
a37a f7				rst 30h			;a37a	f7 	.  
a37b 01 18 e5			ld bc,0e518h		;a37b	01 18 e5 	. . .  
a37e f5				push af			;a37e	f5 	.  
a37f			la37fh: 
a37f 7e				ld a,(hl)			;a37f	7e 	~  
a380 23				inc hl			;a380	23 	#  
a381 b7				or a			;a381	b7 	.  
a382 28 05			jr z,la389h		;a382	28 05 	( .  
a384 cd ae 23			call 023aeh		;a384	cd ae 23 	. . #  
a387 18 f6			jr la37fh		;a387	18 f6 	. .  
a389			la389h: 
a389 f1				pop af			;a389	f1 	.  
a38a c9				ret			;a38a	c9 	.  
a38b fd cb d5 86		res 0,(iy-02bh)		;a38b	fd cb d5 86 	. . . .  
a38f 2a 95 1d			ld hl,(01d95h)		;a38f	2a 95 1d 	* . .  
a392 ed 5b 05 1d		ld de,(01d05h)		;a392	ed 5b 05 1d 	. [ . .  
a396 af				xor a			;a396	af 	.  
a397 ed 52			sbc hl,de		;a397	ed 52 	. R  
a399 c8				ret z			;a399	c8 	.  
a39a eb				ex de,hl			;a39a	eb 	.  
a39b 22 95 1d			ld (01d95h),hl		;a39b	22 95 1d 	" . .  
a39e cd db 22			call 022dbh		;a39e	cd db 22 	. . "  
a3a1			la3a1h: 
a3a1 7e				ld a,(hl)			;a3a1	7e 	~  
a3a2 b7				or a			;a3a2	b7 	.  
a3a3 28 08			jr z,la3adh		;a3a3	28 08 	( .  
a3a5 cd 1d 23			call 0231dh		;a3a5	cd 1d 23 	. . #  
a3a8 af				xor a			;a3a8	af 	.  
a3a9 77				ld (hl),a			;a3a9	77 	w  
a3aa 23				inc hl			;a3aa	23 	#  
a3ab 18 f4			jr la3a1h		;a3ab	18 f4 	. .  
a3ad			la3adh: 
a3ad 3e 0d			ld a,00dh		;a3ad	3e 0d 	> .  
a3af cd 1d 23			call 0231dh		;a3af	cd 1d 23 	. . #  
a3b2 c9				ret			;a3b2	c9 	.  
a3b3 cd 8b 24			call 0248bh		;a3b3	cd 8b 24 	. . $  
a3b6 fd 7e d7			ld a,(iy-029h)		;a3b6	fd 7e d7 	. ~ .  
a3b9 cd f7 22			call 022f7h		;a3b9	cd f7 22 	. . "  
a3bc ca cb 21			jp z,021cbh		;a3bc	ca cb 21 	. . !  
a3bf fa cb 21			jp m,021cbh		;a3bf	fa cb 21 	. . !  
a3c2			la3c2h: 
a3c2 fd 77 d7			ld (iy-029h),a		;a3c2	fd 77 d7 	. w .  
a3c5 c3 cb 21			jp 021cbh		;a3c5	c3 cb 21 	. . !  
a3c8 fd 7e d3			ld a,(iy-02dh)		;a3c8	fd 7e d3 	. ~ .  
a3cb cd f7 22			call 022f7h		;a3cb	cd f7 22 	. . "  
a3ce fd be d4			cp (iy-02ch)		;a3ce	fd be d4 	. . .  
a3d1 fa ce 21			jp m,021ceh		;a3d1	fa ce 21 	. . !  
a3d4 fd 77 d3			ld (iy-02dh),a		;a3d4	fd 77 d3 	. w .  
a3d7 fd 7e d2			ld a,(iy-02eh)		;a3d7	fd 7e d2 	. ~ .  
a3da b7				or a			;a3da	b7 	.  
a3db ca cb 21			jp z,021cbh		;a3db	ca cb 21 	. . !  
a3de c3 ce 21			jp 021ceh		;a3de	c3 ce 21 	. . !  
a3e1 cd 8b 24			call 0248bh		;a3e1	cd 8b 24 	. . $  
a3e4 fd 7e d4			ld a,(iy-02ch)		;a3e4	fd 7e d4 	. ~ .  
a3e7 cd f7 22			call 022f7h		;a3e7	cd f7 22 	. . "  
a3ea fa cb 21			jp m,021cbh		;a3ea	fa cb 21 	. . !  
a3ed			la3edh: 
a3ed fd 77 d4			ld (iy-02ch),a		;a3ed	fd 77 d4 	. w .  
a3f0 fd 77 d0			ld (iy-030h),a		;a3f0	fd 77 d0 	. w .  
a3f3 c3 cb 21			jp 021cbh		;a3f3	c3 cb 21 	. . !  
a3f6 cd 8b 24			call 0248bh		;a3f6	cd 8b 24 	. . $  
a3f9 3e 01			ld a,001h		;a3f9	3e 01 	> .  
a3fb 18 c5			jr la3c2h		;a3fb	18 c5 	. .  
a3fd cd 8b 24			call 0248bh		;a3fd	cd 8b 24 	. . $  
a400 3e 02			ld a,002h		;a400	3e 02 	> .  
a402 18 be			jr la3c2h		;a402	18 be 	. .  
a404 cd 8b 24			call 0248bh		;a404	cd 8b 24 	. . $  
a407 af				xor a			;a407	af 	.  
a408 18 e3			jr la3edh		;a408	18 e3 	. .  
a40a cd 8b 24			call 0248bh		;a40a	cd 8b 24 	. . $  
a40d c3 cb 21			jp 021cbh		;a40d	c3 cb 21 	. . !  
a410 cd 8b 24			call 0248bh		;a410	cd 8b 24 	. . $  
a413 fd 7e ce			ld a,(iy-032h)		;a413	fd 7e ce 	. ~ .  
a416 b7				or a			;a416	b7 	.  
a417 20 01			jr nz,la41ah		;a417	20 01 	  .  
a419 3c				inc a			;a419	3c 	<  
a41a			la41ah: 
a41a 47				ld b,a			;a41a	47 	G  
a41b			la41bh: 
a41b fd 7e e0			ld a,(iy-020h)		;a41b	fd 7e e0 	. ~ .  
a41e b7				or a			;a41e	b7 	.  
a41f ca cb 21			jp z,021cbh		;a41f	ca cb 21 	. . !  
a422 3e 0d			ld a,00dh		;a422	3e 0d 	> .  
a424 cd 1d 23			call 0231dh		;a424	cd 1d 23 	. . #  
a427 10 f2			djnz la41bh		;a427	10 f2 	. .  
a429 c3 cb 21			jp 021cbh		;a429	c3 cb 21 	. . !  
a42c cd 8b 24			call 0248bh		;a42c	cd 8b 24 	. . $  
a42f 3e 0d			ld a,00dh		;a42f	3e 0d 	> .  
a431 cd 1d 23			call 0231dh		;a431	cd 1d 23 	. . #  
a434 fd 7e d6			ld a,(iy-02ah)		;a434	fd 7e d6 	. ~ .  
a437 cd 46 25			call 02546h		;a437	cd 46 25 	. F %  
a43a fd 77 d6			ld (iy-02ah),a		;a43a	fd 77 d6 	. w .  
a43d fd 86 d4			add a,(iy-02ch)		;a43d	fd 86 d4 	. . .  
a440			la440h: 
a440 fd 77 d0			ld (iy-030h),a		;a440	fd 77 d0 	. w .  
a443 c3 cb 21			jp 021cbh		;a443	c3 cb 21 	. . !  
a446 cd f7 22			call 022f7h		;a446	cd f7 22 	. . "  
a449 b7				or a			;a449	b7 	.  
a44a ca cb 21			jp z,021cbh		;a44a	ca cb 21 	. . !  
a44d fa cb 21			jp m,021cbh		;a44d	fa cb 21 	. . !  
a450 c9				ret			;a450	c9 	.  
a451 cd 8b 24			call 0248bh		;a451	cd 8b 24 	. . $  
a454 fd 7e d4			ld a,(iy-02ch)		;a454	fd 7e d4 	. ~ .  
a457 cd f7 22			call 022f7h		;a457	cd f7 22 	. . "  
a45a fa cb 21			jp m,021cbh		;a45a	fa cb 21 	. . !  
a45d 18 e1			jr la440h		;a45d	18 e1 	. .  
a45f 21 6b 25			ld hl,0256bh		;a45f	21 6b 25 	! k %  
a462 01 0d 00			ld bc,0000dh		;a462	01 0d 00 	. . .  
a465 cd ee 18			call 018eeh		;a465	cd ee 18 	. . .  
a468 c3 cb 21			jp 021cbh		;a468	c3 cb 21 	. . !  
a46b 46				ld b,(hl)			;a46b	46 	F  
a46c 6f				ld l,a			;a46c	6f 	o  
a46d 72				ld (hl),d			;a46d	72 	r  
a46e 6d				ld l,l			;a46e	6d 	m  
a46f 61				ld h,c			;a46f	61 	a  
a470 74				ld (hl),h			;a470	74 	t  
a471 20 65			jr nz,$+103		;a471	20 65 	  e  
a473 72				ld (hl),d			;a473	72 	r  
a474 72				ld (hl),d			;a474	72 	r  
a475 6f				ld l,a			;a475	6f 	o  
a476 72				ld (hl),d			;a476	72 	r  
a477 0d				dec c			;a477	0d 	.  
a478 cd 8b 24			call 0248bh		;a478	cd 8b 24 	. . $  
a47b fd cb d5 ce		set 1,(iy-02bh)		;a47b	fd cb d5 ce 	. . . .  
a47f c3 cb 21			jp 021cbh		;a47f	c3 cb 21 	. . !  
a482 cd 8b 24			call 0248bh		;a482	cd 8b 24 	. . $  
a485 fd cb d5 8e		res 1,(iy-02bh)		;a485	fd cb d5 8e 	. . . .  
a489 c3 cb 21			jp 021cbh		;a489	c3 cb 21 	. . !  
a48c			la48ch: 
a48c cd b0 1f			call 01fb0h		;a48c	cd b0 1f 	. . .  
a48f 18 fb			jr la48ch		;a48f	18 fb 	. .  
a491 cd 8b 24			call 0248bh		;a491	cd 8b 24 	. . $  
a494 af				xor a			;a494	af 	.  
a495 cd 46 25			call 02546h		;a495	cd 46 25 	. F %  
a498 fd 96 f0			sub (iy-010h)		;a498	fd 96 f0 	. . .  
a49b fd 86 e0			add a,(iy-020h)		;a49b	fd 86 e0 	. . .  
a49e f4 5a 23			call p,0235ah		;a49e	f4 5a 23 	. Z #  
a4a1 c3 cb 21			jp 021cbh		;a4a1	c3 cb 21 	. . !  
a4a4 cd 8b 24			call 0248bh		;a4a4	cd 8b 24 	. . $  
a4a7 3a b5 25			ld a,(025b5h)		;a4a7	3a b5 25 	: . %  
a4aa fe 21			cp 021h		;a4aa	fe 21 	. !  
a4ac 30 01			jr nc,la4afh		;a4ac	30 01 	0 .  
a4ae af				xor a			;a4ae	af 	.  
a4af			la4afh: 
a4af fd 77 e1			ld (iy-01fh),a		;a4af	fd 77 e1 	. w .  
a4b2 c3 cb 21			jp 021cbh		;a4b2	c3 cb 21 	. . !  
a4b5 26 fd			ld h,0fdh		;a4b5	26 fd 	& .  
a4b7 7e				ld a,(hl)			;a4b7	7e 	~  
a4b8 e3				ex (sp),hl			;a4b8	e3 	.  
a4b9 e6 01			and 001h		;a4b9	e6 01 	. .  
a4bb fd 77 e4			ld (iy-01ch),a		;a4bb	fd 77 e4 	. w .  
a4be fd 4e f1			ld c,(iy-00fh)		;a4be	fd 4e f1 	. N .  
a4c1 cd 6e 23			call 0236eh		;a4c1	cd 6e 23 	. n #  
a4c4 2a 9d 1d			ld hl,(01d9dh)		;a4c4	2a 9d 1d 	* . .  
a4c7 cd da 26			call 026dah		;a4c7	cd da 26 	. . &  
a4ca fd 4e da			ld c,(iy-026h)		;a4ca	fd 4e da 	. N .  
a4cd cd 6e 23			call 0236eh		;a4cd	cd 6e 23 	. n #  
a4d0 c9				ret			;a4d0	c9 	.  
a4d1 fd 7e dd			ld a,(iy-023h)		;a4d1	fd 7e dd 	. ~ .  
a4d4 b7				or a			;a4d4	b7 	.  
a4d5 c8				ret z			;a4d5	c8 	.  
a4d6 47				ld b,a			;a4d6	47 	G  
a4d7			la4d7h: 
a4d7 3e 20			ld a,020h		;a4d7	3e 20 	>    
a4d9 cd b2 23			call 023b2h		;a4d9	cd b2 23 	. . #  
a4dc 10 f9			djnz la4d7h		;a4dc	10 f9 	. .  
a4de c9				ret			;a4de	c9 	.  
a4df fd cb d5 fe		set 7,(iy-02bh)		;a4df	fd cb d5 fe 	. . . .  
a4e3 c3 ce 21			jp 021ceh		;a4e3	c3 ce 21 	. . !  
a4e6 fd cb d5 be		res 7,(iy-02bh)		;a4e6	fd cb d5 be 	. . . .  
a4ea 2a 3c 01			ld hl,(0013ch)		;a4ea	2a 3c 01 	* < .  
a4ed ed 5b 2c 01		ld de,(0012ch)		;a4ed	ed 5b 2c 01 	. [ , .  
a4f1 fd 7e cd			ld a,(iy-033h)		;a4f1	fd 7e cd 	. ~ .  
a4f4 b7				or a			;a4f4	b7 	.  
a4f5 28 0f			jr z,la506h		;a4f5	28 0f 	( .  
a4f7 cb 4f			bit 1,a		;a4f7	cb 4f 	. O  
a4f9 20 07			jr nz,la502h		;a4f9	20 07 	  .  
a4fb cb 47			bit 0,a		;a4fb	cb 47 	. G  
a4fd 28 08			jr z,la507h		;a4fd	28 08 	( .  
a4ff 19				add hl,de			;a4ff	19 	.  
a500 18 06			jr la508h		;a500	18 06 	. .  
a502			la502h: 
a502 ed 52			sbc hl,de		;a502	ed 52 	. R  
a504 18 02			jr la508h		;a504	18 02 	. .  
a506			la506h: 
a506 13				inc de			;a506	13 	.  
a507			la507h: 
a507 eb				ex de,hl			;a507	eb 	.  
a508			la508h: 
a508 22 3c 01			ld (0013ch),hl		;a508	22 3c 01 	" < .  
a50b cd be 27			call 027beh		;a50b	cd be 27 	. . '  
a50e c3 ce 21			jp 021ceh		;a50e	c3 ce 21 	. . !  
a511 cd 8b 24			call 0248bh		;a511	cd 8b 24 	. . $  
a514 3e 00			ld a,000h		;a514	3e 00 	> .  
a516 cd f7 22			call 022f7h		;a516	cd f7 22 	. . "  
a519 20 01			jr nz,la51ch		;a519	20 01 	  .  
a51b 3c				inc a			;a51b	3c 	<  
a51c			la51ch: 
a51c fa cb 21			jp m,021cbh		;a51c	fa cb 21 	. . !  
a51f			la51fh: 
a51f f5				push af			;a51f	f5 	.  
a520 cd 5a 23			call 0235ah		;a520	cd 5a 23 	. Z #  
a523 f1				pop af			;a523	f1 	.  
a524 3d				dec a			;a524	3d 	=  
a525 20 f8			jr nz,la51fh		;a525	20 f8 	  .  
a527 c3 cb 21			jp 021cbh		;a527	c3 cb 21 	. . !  
a52a cd 8b 24			call 0248bh		;a52a	cd 8b 24 	. . $  
a52d cd 5a 23			call 0235ah		;a52d	cd 5a 23 	. Z #  
a530 2a 3c 01			ld hl,(0013ch)		;a530	2a 3c 01 	* < .  
a533 2b				dec hl			;a533	2b 	+  
a534 ed 5b 2c 01		ld de,(0012ch)		;a534	ed 5b 2c 01 	. [ , .  
a538 fd 7e cd			ld a,(iy-033h)		;a538	fd 7e cd 	. ~ .  
a53b b7				or a			;a53b	b7 	.  
a53c ca cb 21			jp z,021cbh		;a53c	ca cb 21 	. . !  
a53f cb 4f			bit 1,a		;a53f	cb 4f 	. O  
a541 20 07			jr nz,la54ah		;a541	20 07 	  .  
a543 cb 47			bit 0,a		;a543	cb 47 	. G  
a545 28 07			jr z,la54eh		;a545	28 07 	( .  
a547 19				add hl,de			;a547	19 	.  
a548 18 05			jr la54fh		;a548	18 05 	. .  
a54a			la54ah: 
a54a ed 52			sbc hl,de		;a54a	ed 52 	. R  
a54c 18 01			jr la54fh		;a54c	18 01 	. .  
a54e			la54eh: 
a54e eb				ex de,hl			;a54e	eb 	.  
a54f			la54fh: 
a54f 22 3c 01			ld (0013ch),hl		;a54f	22 3c 01 	" < .  
a552 fd cb d5 be		res 7,(iy-02bh)		;a552	fd cb d5 be 	. . . .  
a556 cd be 27			call 027beh		;a556	cd be 27 	. . '  
a559 c3 cb 21			jp 021cbh		;a559	c3 cb 21 	. . !  
a55c fd cb d5 ee		set 5,(iy-02bh)		;a55c	fd cb d5 ee 	. . . .  
a560 cd 8b 24			call 0248bh		;a560	cd 8b 24 	. . $  
a563 3e 01			ld a,001h		;a563	3e 01 	> .  
a565 cd 46 25			call 02546h		;a565	cd 46 25 	. F %  
a568			la568h: 
a568 f5				push af			;a568	f5 	.  
a569 cd 73 26			call 02673h		;a569	cd 73 26 	. s &  
a56c f1				pop af			;a56c	f1 	.  
a56d 3d				dec a			;a56d	3d 	=  
a56e 20 f8			jr nz,la568h		;a56e	20 f8 	  .  
a570 c3 cb 21			jp 021cbh		;a570	c3 cb 21 	. . !  
a573			la573h: 
a573 cd 9b 21			call 0219bh		;a573	cd 9b 21 	. . !  
a576 f5				push af			;a576	f5 	.  
a577 fd 7e c0			ld a,(iy-040h)		;a577	fd 7e c0 	. ~ .  
a57a fe 0d			cp 00dh		;a57a	fe 0d 	. .  
a57c 28 06			jr z,la584h		;a57c	28 06 	( .  
a57e f1				pop af			;a57e	f1 	.  
a57f cd a9 21			call 021a9h		;a57f	cd a9 21 	. . !  
a582 18 ef			jr la573h		;a582	18 ef 	. .  
a584			la584h: 
a584 f1				pop af			;a584	f1 	.  
a585 06 00			ld b,000h		;a585	06 00 	. .  
a587 2a 05 1d			ld hl,(01d05h)		;a587	2a 05 1d 	* . .  
a58a			la58ah: 
a58a 7e				ld a,(hl)			;a58a	7e 	~  
a58b 23				inc hl			;a58b	23 	#  
a58c b7				or a			;a58c	b7 	.  
a58d 28 06			jr z,la595h		;a58d	28 06 	( .  
a58f fa 8a 26			jp m,0268ah		;a58f	fa 8a 26 	. . &  
a592 04				inc b			;a592	04 	.  
a593 18 f5			jr la58ah		;a593	18 f5 	. .  
a595			la595h: 
a595 fd 7e d3			ld a,(iy-02dh)		;a595	fd 7e d3 	. ~ .  
a598 90				sub b			;a598	90 	.  
a599 f2 9d 26			jp p,0269dh		;a599	f2 9d 26 	. . &  
a59c af				xor a			;a59c	af 	.  
a59d fd cb d5 6e		bit 5,(iy-02bh)		;a59d	fd cb d5 6e 	. . . n  
a5a1 20 02			jr nz,la5a5h		;a5a1	20 02 	  .  
a5a3 cb 3f			srl a		;a5a3	cb 3f 	. ?  
a5a5			la5a5h: 
a5a5 fd 77 d0			ld (iy-030h),a		;a5a5	fd 77 d0 	. w .  
a5a8 cd 8f 24			call 0248fh		;a5a8	cd 8f 24 	. . $  
a5ab c9				ret			;a5ab	c9 	.  
a5ac 2a 9d 1d			ld hl,(01d9dh)		;a5ac	2a 9d 1d 	* . .  
a5af 36 0a			ld (hl),00ah		;a5af	36 0a 	6 .  
a5b1 23				inc hl			;a5b1	23 	#  
a5b2 e5				push hl			;a5b2	e5 	.  
a5b3 cd 53 1f			call 01f53h		;a5b3	cd 53 1f 	. S .  
a5b6 e1				pop hl			;a5b6	e1 	.  
a5b7 fe 20			cp 020h		;a5b7	fe 20 	.    
a5b9 20 05			jr nz,la5c0h		;a5b9	20 05 	  .  
a5bb			la5bbh: 
a5bb e5				push hl			;a5bb	e5 	.  
a5bc cd 53 1f			call 01f53h		;a5bc	cd 53 1f 	. S .  
a5bf e1				pop hl			;a5bf	e1 	.  
a5c0			la5c0h: 
a5c0 fd be e6			cp (iy-01ah)		;a5c0	fd be e6 	. . .  
a5c3 20 02			jr nz,la5c7h		;a5c3	20 02 	  .  
a5c5 3e 80			ld a,080h		;a5c5	3e 80 	> .  
a5c7			la5c7h: 
a5c7 77				ld (hl),a			;a5c7	77 	w  
a5c8 fe 0d			cp 00dh		;a5c8	fe 0d 	. .  
a5ca ca ce 21			jp z,021ceh		;a5ca	ca ce 21 	. . !  
a5cd 23				inc hl			;a5cd	23 	#  
a5ce 18 eb			jr la5bbh		;a5ce	18 eb 	. .  
a5d0 2a 9b 1d			ld hl,(01d9bh)		;a5d0	2a 9b 1d 	* . .  
a5d3 18 e6			jr la5bbh		;a5d3	18 e6 	. .  
a5d5 2a 9d 1d			ld hl,(01d9dh)		;a5d5	2a 9d 1d 	* . .  
a5d8 18 e1			jr la5bbh		;a5d8	18 e1 	. .  
a5da 22 22 1e			ld (01e22h),hl		;a5da	22 22 1e 	" " .  
a5dd cd 63 27			call 02763h		;a5dd	cd 63 27 	. c '  
a5e0 21 00 00			ld hl,00000h		;a5e0	21 00 00 	! . .  
a5e3 22 46 01			ld (00146h),hl		;a5e3	22 46 01 	" F .  
a5e6			la5e6h: 
a5e6 cd 73 27			call 02773h		;a5e6	cd 73 27 	. s '  
a5e9 fe 0d			cp 00dh		;a5e9	fe 0d 	. .  
a5eb c8				ret z			;a5eb	c8 	.  
a5ec fe 0a			cp 00ah		;a5ec	fe 0a 	. .  
a5ee 28 04			jr z,la5f4h		;a5ee	28 04 	( .  
a5f0 fe 21			cp 021h		;a5f0	fe 21 	. !  
a5f2 38 f2			jr c,la5e6h		;a5f2	38 f2 	8 .  
a5f4			la5f4h: 
a5f4 fd 77 c9			ld (iy-037h),a		;a5f4	fd 77 c9 	. w .  
a5f7 cd d1 25			call 025d1h		;a5f7	cd d1 25 	. . %  
a5fa 06 00			ld b,000h		;a5fa	06 00 	. .  
a5fc cd 35 27			call 02735h		;a5fc	cd 35 27 	. 5 '  
a5ff 3e 00			ld a,000h		;a5ff	3e 00 	> .  
a601 c4 16 27			call nz,02716h		;a601	c4 16 27 	. . '  
a604 cd 35 27			call 02735h		;a604	cd 35 27 	. 5 '  
a607 cb 3f			srl a		;a607	cb 3f 	. ?  
a609 c4 16 27			call nz,02716h		;a609	c4 16 27 	. . '  
a60c cd 35 27			call 02735h		;a60c	cd 35 27 	. 5 '  
a60f c4 16 27			call nz,02716h		;a60f	c4 16 27 	. . '  
a612 cd 6a 27			call 0276ah		;a612	cd 6a 27 	. j '  
a615 c9				ret			;a615	c9 	.  
a616 4f				ld c,a			;a616	4f 	O  
a617			la617h: 
a617 78				ld a,b			;a617	78 	x  
a618 b9				cp c			;a618	b9 	.  
a619 30 08			jr nc,la623h		;a619	30 08 	0 .  
a61b 3e 20			ld a,020h		;a61b	3e 20 	>    
a61d cd b2 23			call 023b2h		;a61d	cd b2 23 	. . #  
a620 04				inc b			;a620	04 	.  
a621 18 f4			jr la617h		;a621	18 f4 	. .  
a623			la623h: 
a623 ed 5b 26 1e		ld de,(01e26h)		;a623	ed 5b 26 1e 	. [ & .  
a627			la627h: 
a627 1a				ld a,(de)			;a627	1a 	.  
a628 13				inc de			;a628	13 	.  
a629 b7				or a			;a629	b7 	.  
a62a c8				ret z			;a62a	c8 	.  
a62b cd b2 23			call 023b2h		;a62b	cd b2 23 	. . #  
a62e b7				or a			;a62e	b7 	.  
a62f fa 27 27			jp m,02727h		;a62f	fa 27 27 	. ' '  
a632 04				inc b			;a632	04 	.  
a633 18 f2			jr la627h		;a633	18 f2 	. .  
a635 0e 00			ld c,000h		;a635	0e 00 	. .  
a637 2a 26 1e			ld hl,(01e26h)		;a637	2a 26 1e 	* & .  
a63a fd 7e f7			ld a,(iy-009h)		;a63a	fd 7e f7 	. ~ .  
a63d fe 0d			cp 00dh		;a63d	fe 0d 	. .  
a63f 28 15			jr z,la656h		;a63f	28 15 	( .  
a641			la641h: 
a641 cd 73 27			call 02773h		;a641	cd 73 27 	. s '  
a644 fe 0d			cp 00dh		;a644	fe 0d 	. .  
a646 28 0e			jr z,la656h		;a646	28 0e 	( .  
a648 fd be c9			cp (iy-037h)		;a648	fd be c9 	. . .  
a64b 28 09			jr z,la656h		;a64b	28 09 	( .  
a64d 77				ld (hl),a			;a64d	77 	w  
a64e 23				inc hl			;a64e	23 	#  
a64f b7				or a			;a64f	b7 	.  
a650 fa 41 27			jp m,02741h		;a650	fa 41 27 	. A '  
a653 0c				inc c			;a653	0c 	.  
a654 18 eb			jr la641h		;a654	18 eb 	. .  
a656			la656h: 
a656 36 00			ld (hl),000h		;a656	36 00 	6 .  
a658 79				ld a,c			;a658	79 	y  
a659 b7				or a			;a659	b7 	.  
a65a c8				ret z			;a65a	c8 	.  
a65b fd 7e d3			ld a,(iy-02dh)		;a65b	fd 7e d3 	. ~ .  
a65e 91				sub c			;a65e	91 	.  
a65f f0				ret p			;a65f	f0 	.  
a660 af				xor a			;a660	af 	.  
a661 4f				ld c,a			;a661	4f 	O  
a662 c9				ret			;a662	c9 	.  
a663 2a 46 01			ld hl,(00146h)		;a663	2a 46 01 	* F .  
a666 22 71 27			ld (02771h),hl		;a666	22 71 27 	" q '  
a669 c9				ret			;a669	c9 	.  
a66a 2a 71 27			ld hl,(02771h)		;a66a	2a 71 27 	* q '  
a66d 22 46 01			ld (00146h),hl		;a66d	22 46 01 	" F .  
a670 c9				ret			;a670	c9 	.  
a671 00				nop			;a671	00 	.  
a672 00				nop			;a672	00 	.  
a673 e5				push hl			;a673	e5 	.  
a674 fd cb e8 7e		bit 7,(iy-018h)		;a674	fd cb e8 7e 	. . . ~  
a678 28 12			jr z,la68ch		;a678	28 12 	( .  
a67a 2a 24 1e			ld hl,(01e24h)		;a67a	2a 24 1e 	* $ .  
a67d			la67dh: 
a67d 7e				ld a,(hl)			;a67d	7e 	~  
a67e 23				inc hl			;a67e	23 	#  
a67f 22 24 1e			ld (01e24h),hl		;a67f	22 24 1e 	" $ .  
a682 b7				or a			;a682	b7 	.  
a683 fd 77 f7			ld (iy-009h),a		;a683	fd 77 f7 	. w .  
a686 20 1c			jr nz,la6a4h		;a686	20 1c 	  .  
a688 fd cb e8 be		res 7,(iy-018h)		;a688	fd cb e8 be 	. . . .  
a68c			la68ch: 
a68c 2a 22 1e			ld hl,(01e22h)		;a68c	2a 22 1e 	* " .  
a68f 7e				ld a,(hl)			;a68f	7e 	~  
a690 23				inc hl			;a690	23 	#  
a691 22 22 1e			ld (01e22h),hl		;a691	22 22 1e 	" " .  
a694 fe 80			cp 080h		;a694	fe 80 	. .  
a696 fd 77 f7			ld (iy-009h),a		;a696	fd 77 f7 	. w .  
a699 20 09			jr nz,la6a4h		;a699	20 09 	  .  
a69b fd cb e8 fe		set 7,(iy-018h)		;a69b	fd cb e8 fe 	. . . .  
a69f 21 1c 1e			ld hl,01e1ch		;a69f	21 1c 1e 	! . .  
a6a2 18 d9			jr la67dh		;a6a2	18 d9 	. .  
a6a4			la6a4h: 
a6a4 e1				pop hl			;a6a4	e1 	.  
a6a5 c9				ret			;a6a5	c9 	.  
a6a6 21 00 00			ld hl,00000h		;a6a6	21 00 00 	! . .  
a6a9 3e 11			ld a,011h		;a6a9	3e 11 	> .  
a6ab b7				or a			;a6ab	b7 	.  
a6ac			la6ach: 
a6ac cb 15			rl l		;a6ac	cb 15 	. .  
a6ae cb 14			rl h		;a6ae	cb 14 	. .  
a6b0 ed 42			sbc hl,bc		;a6b0	ed 42 	. B  
a6b2 30 01			jr nc,la6b5h		;a6b2	30 01 	0 .  
a6b4 09				add hl,bc			;a6b4	09 	.  
a6b5			la6b5h: 
a6b5 3f				ccf			;a6b5	3f 	?  
a6b6 cb 13			rl e		;a6b6	cb 13 	. .  
a6b8 cb 12			rl d		;a6b8	cb 12 	. .  
a6ba 3d				dec a			;a6ba	3d 	=  
a6bb 20 ef			jr nz,la6ach		;a6bb	20 ef 	  .  
a6bd c9				ret			;a6bd	c9 	.  
a6be 2a 3c 01			ld hl,(0013ch)		;a6be	2a 3c 01 	* < .  
a6c1 11 ff ff			ld de,0ffffh		;a6c1	11 ff ff 	. . .  
a6c4 d5				push de			;a6c4	d5 	.  
a6c5 01 0a 00			ld bc,0000ah		;a6c5	01 0a 00 	. . .  
a6c8 54				ld d,h			;a6c8	54 	T  
a6c9 5d				ld e,l			;a6c9	5d 	]  
a6ca			la6cah: 
a6ca cd a6 27			call 027a6h		;a6ca	cd a6 27 	. . '  
a6cd e5				push hl			;a6cd	e5 	.  
a6ce 7a				ld a,d			;a6ce	7a 	z  
a6cf b7				or a			;a6cf	b7 	.  
a6d0 20 f8			jr nz,la6cah		;a6d0	20 f8 	  .  
a6d2 83				add a,e			;a6d2	83 	.  
a6d3 20 f5			jr nz,la6cah		;a6d3	20 f5 	  .  
a6d5 21 1c 1e			ld hl,01e1ch		;a6d5	21 1c 1e 	! . .  
a6d8			la6d8h: 
a6d8 d1				pop de			;a6d8	d1 	.  
a6d9 af				xor a			;a6d9	af 	.  
a6da 83				add a,e			;a6da	83 	.  
a6db f8				ret m			;a6db	f8 	.  
a6dc c6 30			add a,030h		;a6dc	c6 30 	. 0  
a6de 77				ld (hl),a			;a6de	77 	w  
a6df 23				inc hl			;a6df	23 	#  
a6e0 36 00			ld (hl),000h		;a6e0	36 00 	6 .  
a6e2 18 f4			jr la6d8h		;a6e2	18 f4 	. .  
a6e4 cd 8b 24			call 0248bh		;a6e4	cd 8b 24 	. . $  
a6e7 3a b5 25			ld a,(025b5h)		;a6e7	3a b5 25 	: . %  
a6ea e6 1f			and 01fh		;a6ea	e6 1f 	. .  
a6ec cd b2 23			call 023b2h		;a6ec	cd b2 23 	. . #  
a6ef c3 cb 21			jp 021cbh		;a6ef	c3 cb 21 	. . !  
a6f2 3a b5 25			ld a,(025b5h)		;a6f2	3a b5 25 	: . %  
a6f5 fe 21			cp 021h		;a6f5	fe 21 	. !  
a6f7 d0				ret nc			;a6f7	d0 	.  
a6f8 af				xor a			;a6f8	af 	.  
a6f9 c9				ret			;a6f9	c9 	.  
a6fa cd f2 27			call 027f2h		;a6fa	cd f2 27 	. . '  
a6fd fd 77 e2			ld (iy-01eh),a		;a6fd	fd 77 e2 	. w .  
a700 c3 ce 21			jp 021ceh		;a700	c3 ce 21 	. . !  
a703 cd f2 27			call 027f2h		;a703	cd f2 27 	. . '  
a706 fd 77 ea			ld (iy-016h),a		;a706	fd 77 ea 	. w .  
a709 c3 ce 21			jp 021ceh		;a709	c3 ce 21 	. . !  
a70c cd f2 27			call 027f2h		;a70c	cd f2 27 	. . '  
a70f fd 77 eb			ld (iy-015h),a		;a70f	fd 77 eb 	. w .  
a712 c3 ce 21			jp 021ceh		;a712	c3 ce 21 	. . !  
a715 cd f2 27			call 027f2h		;a715	cd f2 27 	. . '  
a718 fd 77 ec			ld (iy-014h),a		;a718	fd 77 ec 	. w .  
a71b c3 ce 21			jp 021ceh		;a71b	c3 ce 21 	. . !  
a71e cd f2 27			call 027f2h		;a71e	cd f2 27 	. . '  
a721 fd 77 ed			ld (iy-013h),a		;a721	fd 77 ed 	. w .  
a724 c3 ce 21			jp 021ceh		;a724	c3 ce 21 	. . !  
a727 cd f2 27			call 027f2h		;a727	cd f2 27 	. . '  
a72a fd 77 ee			ld (iy-012h),a		;a72a	fd 77 ee 	. w .  
a72d c3 ce 21			jp 021ceh		;a72d	c3 ce 21 	. . !  
a730 cd f2 27			call 027f2h		;a730	cd f2 27 	. . '  
a733 fd 77 e6			ld (iy-01ah),a		;a733	fd 77 e6 	. w .  
a736 c3 ce 21			jp 021ceh		;a736	c3 ce 21 	. . !  
a739 cd f2 27			call 027f2h		;a739	cd f2 27 	. . '  
a73c fd 77 e7			ld (iy-019h),a		;a73c	fd 77 e7 	. w .  
a73f c3 ce 21			jp 021ceh		;a73f	c3 ce 21 	. . !  
a742 fd cb d5 b6		res 6,(iy-02bh)		;a742	fd cb d5 b6 	. . . .  
a746 c3 ce 21			jp 021ceh		;a746	c3 ce 21 	. . !  
a749 fd cb d5 f6		set 6,(iy-02bh)		;a749	fd cb d5 f6 	. . . .  
a74d c3 ce 21			jp 021ceh		;a74d	c3 ce 21 	. . !  
a750 21 7d 28			ld hl,0287dh		;a750	21 7d 28 	! } (  
a753 01 1a 00			ld bc,0001ah		;a753	01 1a 00 	. . .  
a756 cd ee 18			call 018eeh		;a756	cd ee 18 	. . .  
a759 cd 64 1b			call 01b64h		;a759	cd 64 1b 	. d .  
a75c c0				ret nz			;a75c	c0 	.  
a75d cd 91 14			call 01491h		;a75d	cd 91 14 	. . .  
a760 fd cb c6 fe		set 7,(iy-03ah)		;a760	fd cb c6 fe 	. . . .  
a764 2a 06 01			ld hl,(00106h)		;a764	2a 06 01 	* . .  
a767 22 08 01			ld (00108h),hl		;a767	22 08 01 	" . .  
a76a 21 80 00			ld hl,00080h		;a76a	21 80 00 	! . .  
a76d 36 00			ld (hl),000h		;a76d	36 00 	6 .  
a76f 21 05 10			ld hl,01005h		;a76f	21 05 10 	! . .  
a772 11 ec 0f			ld de,00fech		;a772	11 ec 0f 	. . .  
a775 01 03 00			ld bc,00003h		;a775	01 03 00 	. . .  
a778 ed b0			ldir		;a778	ed b0 	. .  
a77a c3 e9 06			jp 006e9h		;a77a	c3 e9 06 	. . .  
a77d 4c				ld c,h			;a77d	4c 	L  
a77e 6f				ld l,a			;a77e	6f 	o  
a77f 73				ld (hl),e			;a77f	73 	s  
a780 65				ld h,l			;a780	65 	e  
a781 20 54			jr nz,la7d7h		;a781	20 54 	  T  
a783 65				ld h,l			;a783	65 	e  
a784 78				ld a,b			;a784	78 	x  
a785 74				ld (hl),h			;a785	74 	t  
a786 20 46			jr nz,la7ceh		;a786	20 46 	  F  
a788 6f				ld l,a			;a788	6f 	o  
a789			la789h: 
a789 72				ld (hl),d			;a789	72 	r  
a78a 6d				ld l,l			;a78a	6d 	m  
a78b 61				ld h,c			;a78b	61 	a  
a78c 74				ld (hl),h			;a78c	74 	t  
a78d 74				ld (hl),h			;a78d	74 	t  
a78e 65				ld h,l			;a78e	65 	e  
a78f 72				ld (hl),d			;a78f	72 	r  
a790 20 28			jr nz,la7bah		;a790	20 28 	  (  
a792 59				ld e,c			;a792	59 	Y  
a793 2f				cpl			;a793	2f 	/  
a794 4e				ld c,(hl)			;a794	4e 	N  
a795 29				add hl,hl			;a795	29 	)  
a796 3f				ccf			;a796	3f 	?  
a797 55				ld d,l			;a797	55 	U  
a798 09				add hl,bc			;a798	09 	.  
a799 24				inc h			;a799	24 	$  
a79a 0d				dec c			;a79a	0d 	.  
a79b 0a				ld a,(bc)			;a79b	0a 	.  
a79c 0d				dec c			;a79c	0d 	.  
a79d			la79dh: 
a79d 0a				ld a,(bc)			;a79d	0a 	.  
a79e 09				add hl,bc			;a79e	09 	.  
a79f 45				ld b,l			;a79f	45 	E  
a7a0 4e				ld c,(hl)			;a7a0	4e 	N  
a7a1 44				ld b,h			;a7a1	44 	D  
a7a2 0d				dec c			;a7a2	0d 	.  
a7a3 0a				ld a,(bc)			;a7a3	0a 	.  
a7a4 1a				ld a,(de)			;a7a4	1a 	.  
a7a5 1a				ld a,(de)			;a7a5	1a 	.  
a7a6 1a				ld a,(de)			;a7a6	1a 	.  
a7a7 b2				or d			;a7a7	b2 	.  
a7a8 28 df			jr z,la789h		;a7a8	28 df 	( .  
a7aa 28 29			jr z,la7d5h		;a7aa	28 29 	( )  
a7ac 00				nop			;a7ac	00 	.  
a7ad 56				ld d,(hl)			;a7ad	56 	V  
a7ae 45				ld b,l			;a7ae	45 	E  
a7af 52				ld d,d			;a7af	52 	R  
a7b0 53				ld d,e			;a7b0	53 	S  
a7b1 00				nop			;a7b1	00 	.  
a7b2 bc				cp h			;a7b2	bc 	.  
a7b3 28 09			jr z,la7beh		;a7b3	28 09 	( .  
a7b5 29				add hl,hl			;a7b5	29 	)  
a7b6 43				ld b,e			;a7b6	43 	C  
a7b7 00				nop			;a7b7	00 	.  
a7b8 52				ld d,d			;a7b8	52 	R  
a7b9 45				ld b,l			;a7b9	45 	E  
a7ba			la7bah: 
a7ba 56				ld d,(hl)			;a7ba	56 	V  
a7bb 00				nop			;a7bb	00 	.  
a7bc 16 29			ld d,029h		;a7bc	16 29 	. )  
a7be			la7beh: 
a7be c7				rst 0			;a7be	c7 	.  
a7bf 28 ff			jr z,$+1		;a7bf	28 ff 	( .  
a7c1 ff				rst 38h			;a7c1	ff 	.  
a7c2 43				ld b,e			;a7c2	43 	C  
a7c3 31 30 30			ld sp,03030h		;a7c3	31 30 30 	1 0 0  
a7c6 00				nop			;a7c6	00 	.  
a7c7 e9				jp (hl)			;a7c7	e9 	.  
a7c8			la7c8h: 
a7c8 28 d3			jr z,la79dh		;a7c8	28 d3 	( .  
a7ca 28 fc			jr z,la7c8h		;a7ca	28 fc 	( .  
a7cc fb				ei			;a7cc	fb 	.  
a7cd 50				ld d,b			;a7cd	50 	P  
a7ce			la7ceh: 
a7ce 4f				ld c,a			;a7ce	4f 	O  
a7cf 52				ld d,d			;a7cf	52 	R  
a7d0 54				ld d,h			;a7d0	54 	T  
a7d1 30 00			jr nc,la7d3h		;a7d1	30 00 	0 .  
a7d3			la7d3h: 
a7d3 00				nop			;a7d3	00 	.  
a7d4 00				nop			;a7d4	00 	.  
a7d5			la7d5h: 
a7d5 2c				inc l			;a7d5	2c 	,  
a7d6 29				add hl,hl			;a7d6	29 	)  
a7d7			la7d7h: 
a7d7 fe fb			cp 0fbh		;a7d7	fe fb 	. .  
a7d9 50				ld d,b			;a7d9	50 	P  
a7da 4f				ld c,a			;a7da	4f 	O  
a7db 52				ld d,d			;a7db	52 	R  
a7dc 54				ld d,h			;a7dc	54 	T  
a7dd 31 00 30			ld sp,03000h		;a7dd	31 00 30 	1 . 0  
a7e0 2c				inc l			;a7e0	2c 	,  
a7e1 38 29			jr c,la80ch		;a7e1	38 29 	8 )  
a7e3 00				nop			;a7e3	00 	.  
a7e4 f0				ret p			;a7e4	f0 	.  
a7e5 56				ld d,(hl)			;a7e5	56 	V  
a7e6 54				ld d,h			;a7e6	54 	T  
a7e7 42				ld b,d			;a7e7	42 	B  
a7e8 00				nop			;a7e8	00 	.  
a7e9 f4 28 8d			call p,sub_8d28h		;a7e9	f4 28 8d 	. ( .  
a7ec 29				add hl,hl			;a7ec	29 	)  
a7ed 03				inc bc			;a7ed	03 	.  
a7ee ff				rst 38h			;a7ee	ff 	.  
a7ef 4d				ld c,l			;a7ef	4d 	M  
a7f0 41				ld b,c			;a7f0	41 	A  
a7f1 53				ld d,e			;a7f1	53 	S  
a7f2 4b				ld c,e			;a7f2	4b 	K  
a7f3 00				nop			;a7f3	00 	.  
a7f4 fe 28			cp 028h		;a7f4	fe 28 	. (  
a7f6 74				ld (hl),h			;a7f6	74 	t  
a7f7 29				add hl,hl			;a7f7	29 	)  
a7f8 13				inc de			;a7f8	13 	.  
a7f9 e0				ret po			;a7f9	e0 	.  
a7fa 46				ld b,(hl)			;a7fa	46 	F  
a7fb 50				ld d,b			;a7fb	50 	P  
a7fc 4d				ld c,l			;a7fc	4d 	M  
a7fd 00				nop			;a7fd	00 	.  
a7fe 99				sbc a,c			;a7fe	99 	.  
a7ff 29				add hl,hl			;a7ff	29 	)  
a800 ff				rst 38h			;a800	ff 	.  
a801 c3 f7 00			jp 000f7h		;a801	c3 f7 00 	. . .  
a804 ff				rst 38h			;a804	ff 	.  
a805 00				nop			;a805	00 	.  
a806 ff				rst 38h			;a806	ff 	.  
a807 00				nop			;a807	00 	.  
a808 ff				rst 38h			;a808	ff 	.  
a809 00				nop			;a809	00 	.  
a80a ff				rst 38h			;a80a	ff 	.  
a80b 00				nop			;a80b	00 	.  
a80c			la80ch: 
a80c ff				rst 38h			;a80c	ff 	.  
a80d 00				nop			;a80d	00 	.  
a80e ff				rst 38h			;a80e	ff 	.  
a80f 00				nop			;a80f	00 	.  
a810 ff				rst 38h			;a810	ff 	.  
a811 00				nop			;a811	00 	.  
a812 ff				rst 38h			;a812	ff 	.  
a813 00				nop			;a813	00 	.  
a814 ff				rst 38h			;a814	ff 	.  
a815 00				nop			;a815	00 	.  
a816 ff				rst 38h			;a816	ff 	.  
a817 00				nop			;a817	00 	.  
a818 ff				rst 38h			;a818	ff 	.  
a819 00				nop			;a819	00 	.  
a81a ff				rst 38h			;a81a	ff 	.  
a81b 00				nop			;a81b	00 	.  
a81c ff				rst 38h			;a81c	ff 	.  
a81d 00				nop			;a81d	00 	.  
a81e ff				rst 38h			;a81e	ff 	.  
a81f 00				nop			;a81f	00 	.  
a820 ff				rst 38h			;a820	ff 	.  
a821 00				nop			;a821	00 	.  
a822 ff				rst 38h			;a822	ff 	.  
a823 00				nop			;a823	00 	.  
a824 ff				rst 38h			;a824	ff 	.  
a825 00				nop			;a825	00 	.  
a826 ff				rst 38h			;a826	ff 	.  
a827 00				nop			;a827	00 	.  
a828 ff				rst 38h			;a828	ff 	.  
a829 00				nop			;a829	00 	.  
a82a ff				rst 38h			;a82a	ff 	.  
a82b 00				nop			;a82b	00 	.  
a82c ff				rst 38h			;a82c	ff 	.  
a82d 00				nop			;a82d	00 	.  
a82e ff				rst 38h			;a82e	ff 	.  
a82f 00				nop			;a82f	00 	.  
a830 ff				rst 38h			;a830	ff 	.  
a831 00				nop			;a831	00 	.  
a832 ff				rst 38h			;a832	ff 	.  
a833 00				nop			;a833	00 	.  
a834 ff				rst 38h			;a834	ff 	.  
a835 00				nop			;a835	00 	.  
a836 ff				rst 38h			;a836	ff 	.  
a837 00				nop			;a837	00 	.  
a838 ff				rst 38h			;a838	ff 	.  
a839 00				nop			;a839	00 	.  
a83a ff				rst 38h			;a83a	ff 	.  
a83b 00				nop			;a83b	00 	.  
a83c ff				rst 38h			;a83c	ff 	.  
a83d 00				nop			;a83d	00 	.  
a83e ff				rst 38h			;a83e	ff 	.  
a83f 00				nop			;a83f	00 	.  
a840 ff				rst 38h			;a840	ff 	.  
a841 00				nop			;a841	00 	.  
a842 ff				rst 38h			;a842	ff 	.  
a843 00				nop			;a843	00 	.  
a844 ff				rst 38h			;a844	ff 	.  
a845 00				nop			;a845	00 	.  
a846 ff				rst 38h			;a846	ff 	.  
a847 00				nop			;a847	00 	.  
a848 ff				rst 38h			;a848	ff 	.  
a849 00				nop			;a849	00 	.  
a84a ff				rst 38h			;a84a	ff 	.  
a84b 00				nop			;a84b	00 	.  
a84c ff				rst 38h			;a84c	ff 	.  
a84d 00				nop			;a84d	00 	.  
a84e ff				rst 38h			;a84e	ff 	.  
a84f 00				nop			;a84f	00 	.  
a850 ff				rst 38h			;a850	ff 	.  
a851 00				nop			;a851	00 	.  
a852 ff				rst 38h			;a852	ff 	.  
a853 00				nop			;a853	00 	.  
a854 ff				rst 38h			;a854	ff 	.  
a855 00				nop			;a855	00 	.  
a856 ff				rst 38h			;a856	ff 	.  
a857 00				nop			;a857	00 	.  
a858 ff				rst 38h			;a858	ff 	.  
a859 00				nop			;a859	00 	.  
a85a ff				rst 38h			;a85a	ff 	.  
a85b 00				nop			;a85b	00 	.  
a85c ff				rst 38h			;a85c	ff 	.  
a85d 00				nop			;a85d	00 	.  
a85e ff				rst 38h			;a85e	ff 	.  
a85f 00				nop			;a85f	00 	.  
a860 ff				rst 38h			;a860	ff 	.  
a861 00				nop			;a861	00 	.  
a862 ff				rst 38h			;a862	ff 	.  
a863 00				nop			;a863	00 	.  
a864 ff				rst 38h			;a864	ff 	.  
a865 00				nop			;a865	00 	.  
a866 ff				rst 38h			;a866	ff 	.  
a867 00				nop			;a867	00 	.  
a868 ff				rst 38h			;a868	ff 	.  
a869 00				nop			;a869	00 	.  
a86a ff				rst 38h			;a86a	ff 	.  
a86b 00				nop			;a86b	00 	.  
a86c ff				rst 38h			;a86c	ff 	.  
a86d 00				nop			;a86d	00 	.  
a86e ff				rst 38h			;a86e	ff 	.  
a86f 00				nop			;a86f	00 	.  
a870 ff				rst 38h			;a870	ff 	.  
a871 00				nop			;a871	00 	.  
a872 ff				rst 38h			;a872	ff 	.  
a873 00				nop			;a873	00 	.  
a874 ff				rst 38h			;a874	ff 	.  
a875 00				nop			;a875	00 	.  
a876 ff				rst 38h			;a876	ff 	.  
a877 00				nop			;a877	00 	.  
a878 ff				rst 38h			;a878	ff 	.  
a879 00				nop			;a879	00 	.  
a87a ff				rst 38h			;a87a	ff 	.  
a87b 00				nop			;a87b	00 	.  
a87c ff				rst 38h			;a87c	ff 	.  
a87d 00				nop			;a87d	00 	.  
a87e ff				rst 38h			;a87e	ff 	.  
a87f 00				nop			;a87f	00 	.  
a880 ff				rst 38h			;a880	ff 	.  
a881 87				add a,a			;a881	87 	.  
a882 ff				rst 38h			;a882	ff 	.  
a883 00				nop			;a883	00 	.  
a884 ff				rst 38h			;a884	ff 	.  
a885 00				nop			;a885	00 	.  
a886 ff				rst 38h			;a886	ff 	.  
a887 00				nop			;a887	00 	.  
a888 ff				rst 38h			;a888	ff 	.  
a889 00				nop			;a889	00 	.  
a88a ff				rst 38h			;a88a	ff 	.  
a88b 00				nop			;a88b	00 	.  
a88c ff				rst 38h			;a88c	ff 	.  
a88d 00				nop			;a88d	00 	.  
a88e ff				rst 38h			;a88e	ff 	.  
a88f 00				nop			;a88f	00 	.  
a890 ff				rst 38h			;a890	ff 	.  
a891 00				nop			;a891	00 	.  
a892 ff				rst 38h			;a892	ff 	.  
a893 00				nop			;a893	00 	.  
a894 ff				rst 38h			;a894	ff 	.  
a895 00				nop			;a895	00 	.  
a896 ff				rst 38h			;a896	ff 	.  
a897 00				nop			;a897	00 	.  
a898 ff				rst 38h			;a898	ff 	.  
a899 00				nop			;a899	00 	.  
a89a ff				rst 38h			;a89a	ff 	.  
a89b 00				nop			;a89b	00 	.  
a89c ff				rst 38h			;a89c	ff 	.  
a89d 00				nop			;a89d	00 	.  
a89e ff				rst 38h			;a89e	ff 	.  
a89f 00				nop			;a89f	00 	.  
a8a0 ff				rst 38h			;a8a0	ff 	.  
a8a1 00				nop			;a8a1	00 	.  
a8a2 ff				rst 38h			;a8a2	ff 	.  
a8a3 00				nop			;a8a3	00 	.  
a8a4 ff				rst 38h			;a8a4	ff 	.  
a8a5 00				nop			;a8a5	00 	.  
a8a6 ff				rst 38h			;a8a6	ff 	.  
a8a7 00				nop			;a8a7	00 	.  
a8a8 ff				rst 38h			;a8a8	ff 	.  
a8a9 00				nop			;a8a9	00 	.  
a8aa ff				rst 38h			;a8aa	ff 	.  
a8ab 00				nop			;a8ab	00 	.  
a8ac ff				rst 38h			;a8ac	ff 	.  
a8ad 00				nop			;a8ad	00 	.  
a8ae ff				rst 38h			;a8ae	ff 	.  
a8af 00				nop			;a8af	00 	.  
a8b0 ff				rst 38h			;a8b0	ff 	.  
a8b1 00				nop			;a8b1	00 	.  
a8b2 ff				rst 38h			;a8b2	ff 	.  
a8b3 00				nop			;a8b3	00 	.  
a8b4 ff				rst 38h			;a8b4	ff 	.  
a8b5 00				nop			;a8b5	00 	.  
a8b6 ff				rst 38h			;a8b6	ff 	.  
a8b7 00				nop			;a8b7	00 	.  
a8b8 ff				rst 38h			;a8b8	ff 	.  
a8b9 00				nop			;a8b9	00 	.  
a8ba ff				rst 38h			;a8ba	ff 	.  
a8bb 00				nop			;a8bb	00 	.  
a8bc ff				rst 38h			;a8bc	ff 	.  
a8bd 00				nop			;a8bd	00 	.  
a8be ff				rst 38h			;a8be	ff 	.  
a8bf 00				nop			;a8bf	00 	.  
a8c0 ff				rst 38h			;a8c0	ff 	.  
a8c1 00				nop			;a8c1	00 	.  
a8c2 ff				rst 38h			;a8c2	ff 	.  
a8c3 00				nop			;a8c3	00 	.  
a8c4 ff				rst 38h			;a8c4	ff 	.  
a8c5 00				nop			;a8c5	00 	.  
a8c6 ff				rst 38h			;a8c6	ff 	.  
a8c7 00				nop			;a8c7	00 	.  
a8c8 ff				rst 38h			;a8c8	ff 	.  
a8c9 00				nop			;a8c9	00 	.  
a8ca ff				rst 38h			;a8ca	ff 	.  
a8cb 00				nop			;a8cb	00 	.  
a8cc ff				rst 38h			;a8cc	ff 	.  
a8cd 00				nop			;a8cd	00 	.  
a8ce ff				rst 38h			;a8ce	ff 	.  
a8cf 00				nop			;a8cf	00 	.  
a8d0 ff				rst 38h			;a8d0	ff 	.  
a8d1 00				nop			;a8d1	00 	.  
a8d2 ff				rst 38h			;a8d2	ff 	.  
a8d3 00				nop			;a8d3	00 	.  
a8d4 ff				rst 38h			;a8d4	ff 	.  
a8d5 00				nop			;a8d5	00 	.  
a8d6 ff				rst 38h			;a8d6	ff 	.  
a8d7 00				nop			;a8d7	00 	.  
a8d8 ff				rst 38h			;a8d8	ff 	.  
a8d9 00				nop			;a8d9	00 	.  
a8da ff				rst 38h			;a8da	ff 	.  
a8db 00				nop			;a8db	00 	.  
a8dc ff				rst 38h			;a8dc	ff 	.  
a8dd 00				nop			;a8dd	00 	.  
a8de ff				rst 38h			;a8de	ff 	.  
a8df 00				nop			;a8df	00 	.  
a8e0 ff				rst 38h			;a8e0	ff 	.  
a8e1 00				nop			;a8e1	00 	.  
a8e2 ff				rst 38h			;a8e2	ff 	.  
a8e3 00				nop			;a8e3	00 	.  
a8e4 ff				rst 38h			;a8e4	ff 	.  
a8e5 00				nop			;a8e5	00 	.  
a8e6 ff				rst 38h			;a8e6	ff 	.  
a8e7 00				nop			;a8e7	00 	.  
a8e8 ff				rst 38h			;a8e8	ff 	.  
a8e9 00				nop			;a8e9	00 	.  
a8ea ff				rst 38h			;a8ea	ff 	.  
a8eb 00				nop			;a8eb	00 	.  
a8ec ff				rst 38h			;a8ec	ff 	.  
a8ed 00				nop			;a8ed	00 	.  
a8ee ff				rst 38h			;a8ee	ff 	.  
a8ef 00				nop			;a8ef	00 	.  
a8f0 ff				rst 38h			;a8f0	ff 	.  
a8f1 00				nop			;a8f1	00 	.  
a8f2 ff				rst 38h			;a8f2	ff 	.  
a8f3 00				nop			;a8f3	00 	.  
a8f4 ff				rst 38h			;a8f4	ff 	.  
a8f5 00				nop			;a8f5	00 	.  
a8f6 ff				rst 38h			;a8f6	ff 	.  
a8f7 00				nop			;a8f7	00 	.  
a8f8 ff				rst 38h			;a8f8	ff 	.  
a8f9 00				nop			;a8f9	00 	.  
a8fa ff				rst 38h			;a8fa	ff 	.  
a8fb 00				nop			;a8fb	00 	.  
a8fc ff				rst 38h			;a8fc	ff 	.  
a8fd 00				nop			;a8fd	00 	.  
a8fe ff				rst 38h			;a8fe	ff 	.  
a8ff 00				nop			;a8ff	00 	.  
# End of file txed40.asm
a900
